
CompositeKM.elf:     file format elf32-littleriscv
CompositeKM.elf
architecture: riscv:rv32, flags 0x00000112:
EXEC_P, HAS_SYMS, D_PAGED
start address 0x00000000

Program Header:
    LOAD off    0x00001000 vaddr 0x00000000 paddr 0x00000000 align 2**12
         filesz 0x00005278 memsz 0x00005278 flags r-x
    LOAD off    0x00007000 vaddr 0x20000000 paddr 0x00005278 align 2**12
         filesz 0x000000c0 memsz 0x00000568 flags rw-
    LOAD off    0x00007800 vaddr 0x20007800 paddr 0x20007800 align 2**12
         filesz 0x00000000 memsz 0x00000800 flags rw-

Sections:
Idx Name          Size      VMA       LMA       File off  Algn
  0 .init         00000004  00000000  00000000  00001000  2**1
                  CONTENTS, ALLOC, LOAD, READONLY, CODE
  1 .vector       000001bc  00000004  00000004  00001004  2**1
                  CONTENTS, ALLOC, LOAD, READONLY, CODE
  2 .text         000050b8  000001c0  000001c0  000011c0  2**2
                  CONTENTS, ALLOC, LOAD, READONLY, CODE
  3 .fini         00000000  00005278  00005278  000070c0  2**0
                  CONTENTS, ALLOC, LOAD, CODE
  4 .dalign       00000000  20000000  20000000  000070c0  2**0
                  CONTENTS
  5 .dlalign      00000000  00005278  00005278  000070c0  2**0
                  CONTENTS
  6 .data         000000c0  20000000  00005278  00007000  2**2
                  CONTENTS, ALLOC, LOAD, DATA
  7 .bss          000004a8  200000c0  00005338  000070c0  2**2
                  ALLOC
  8 .stack        00000800  20007800  20007800  00007800  2**0
                  ALLOC
  9 .debug_info   00012ab7  00000000  00000000  000070c0  2**0
                  CONTENTS, READONLY, DEBUGGING
 10 .debug_abbrev 00002dca  00000000  00000000  00019b77  2**0
                  CONTENTS, READONLY, DEBUGGING
 11 .debug_aranges 00000b08  00000000  00000000  0001c948  2**3
                  CONTENTS, READONLY, DEBUGGING
 12 .debug_ranges 000009e8  00000000  00000000  0001d450  2**3
                  CONTENTS, READONLY, DEBUGGING
 13 .debug_line   0000c209  00000000  00000000  0001de38  2**0
                  CONTENTS, READONLY, DEBUGGING
 14 .debug_str    000041ea  00000000  00000000  0002a041  2**0
                  CONTENTS, READONLY, DEBUGGING
 15 .comment      00000033  00000000  00000000  0002e22b  2**0
                  CONTENTS, READONLY
 16 .debug_frame  00003024  00000000  00000000  0002e260  2**2
                  CONTENTS, READONLY, DEBUGGING
 17 .stab         00000084  00000000  00000000  00031284  2**2
                  CONTENTS, READONLY, DEBUGGING
 18 .stabstr      00000117  00000000  00000000  00031308  2**0
                  CONTENTS, READONLY, DEBUGGING
SYMBOL TABLE:
00000000 l    d  .init	00000000 .init
00000004 l    d  .vector	00000000 .vector
000001c0 l    d  .text	00000000 .text
00005278 l    d  .fini	00000000 .fini
20000000 l    d  .dalign	00000000 .dalign
00005278 l    d  .dlalign	00000000 .dlalign
20000000 l    d  .data	00000000 .data
200000c0 l    d  .bss	00000000 .bss
20007800 l    d  .stack	00000000 .stack
00000000 l    d  .debug_info	00000000 .debug_info
00000000 l    d  .debug_abbrev	00000000 .debug_abbrev
00000000 l    d  .debug_aranges	00000000 .debug_aranges
00000000 l    d  .debug_ranges	00000000 .debug_ranges
00000000 l    d  .debug_line	00000000 .debug_line
00000000 l    d  .debug_str	00000000 .debug_str
00000000 l    d  .comment	00000000 .comment
00000000 l    d  .debug_frame	00000000 .debug_frame
00000000 l    d  .stab	00000000 .stab
00000000 l    d  .stabstr	00000000 .stabstr
00000000 l    df *ABS*	00000000 ./Startup/startup_ch32v30x_D8C.o
00000004 l       .vector	00000000 _vector_base
00000000 l    df *ABS*	00000000 ch32v30x_it.c
00000000 l    df *ABS*	00000000 ch32v30x_usbhs_device.c
00000000 l    df *ABS*	00000000 main.c
00000000 l    df *ABS*	00000000 system_ch32v30x.c
0000191a l     F .text	00000014 SetSysClock
0000192e l     F .text	00000114 SetSysClockTo96_HSE
00000000 l    df *ABS*	00000000 usbd_compostie_km.c
200000ec l     O .bss	00000002 scan_cnt.5658
200000ee l     O .bss	00000002 scan_result.5659
200000f0 l     O .bss	00000001 key_cnt.5666
200000f1 l     O .bss	00000001 flag.5667
00000000 l    df *ABS*	00000000 ch32v30x_adc.c
00000000 l    df *ABS*	00000000 ch32v30x_dbgmcu.c
00000000 l    df *ABS*	00000000 ch32v30x_dma.c
00000000 l    df *ABS*	00000000 ch32v30x_exti.c
00000000 l    df *ABS*	00000000 ch32v30x_gpio.c
00000000 l    df *ABS*	00000000 ch32v30x_misc.c
00000000 l    df *ABS*	00000000 ch32v30x_pwr.c
00000000 l    df *ABS*	00000000 ch32v30x_rcc.c
00000000 l    df *ABS*	00000000 ch32v30x_tim.c
00000000 l    df *ABS*	00000000 ch32v30x_usart.c
00000000 l    df *ABS*	00000000 debug.c
200000f8 l     O .bss	00000001 p_us
200000fa l     O .bss	00000002 p_ms
200000b0 l     O .data	00000004 curbrk.5377
00000000 l    df *ABS*	00000000 memcpy.c
00000000 l    df *ABS*	00000000 printf.c
00000000 l    df *ABS*	00000000 puts.c
00000000 l    df *ABS*	00000000 wbuf.c
00000000 l    df *ABS*	00000000 wsetup.c
00000000 l    df *ABS*	00000000 fflush.c
00000000 l    df *ABS*	00000000 findfp.c
00004222 l     F .text	00000066 std
00000000 l    df *ABS*	00000000 fwalk.c
00000000 l    df *ABS*	00000000 makebuf.c
00000000 l    df *ABS*	00000000 nano-mallocr.c
00000000 l    df *ABS*	00000000 nano-mallocr.c
00000000 l    df *ABS*	00000000 nano-vfprintf.c
000046a8 l     F .text	00000028 __sfputc_r
00000000 l    df *ABS*	00000000 nano-vfprintf_i.c
00000000 l    df *ABS*	00000000 sbrkr.c
00000000 l    df *ABS*	00000000 stdio.c
00000000 l    df *ABS*	00000000 writer.c
00000000 l    df *ABS*	00000000 closer.c
00000000 l    df *ABS*	00000000 fstatr.c
00000000 l    df *ABS*	00000000 isattyr.c
00000000 l    df *ABS*	00000000 lseekr.c
00000000 l    df *ABS*	00000000 memchr.c
00000000 l    df *ABS*	00000000 mlock.c
00000000 l    df *ABS*	00000000 readr.c
00000000 l    df *ABS*	00000000 close.c
00000000 l    df *ABS*	00000000 fstat.c
00000000 l    df *ABS*	00000000 isatty.c
00000000 l    df *ABS*	00000000 lseek.c
00000000 l    df *ABS*	00000000 read.c
00000000 l    df *ABS*	00000000 usbd_desc.c
00000000 l    df *ABS*	00000000 impure.c
20000048 l     O .data	00000060 impure_data
00000000 l    df *ABS*	00000000 reent.c
00002366  w      .text	00000000 EXTI2_IRQHandler
00002366  w      .text	00000000 TIM8_TRG_COM_IRQHandler
00002366  w      .text	00000000 TIM8_CC_IRQHandler
00004e98 g     F .text	00000028 _isatty_r
000051c4 g     O .text	00000016 MySerNumInfo
00003df8 g     F .text	000000d4 _puts_r
000021ac g     F .text	00000046 USB_Sleep_Wakeup_CFG
20000344 g     O .bss	00000200 USBHS_EP2_TX_Buf
00004ec0 g     F .text	0000002c _lseek_r
00002ede g     F .text	00000040 DMA_Cmd
00002366  w      .text	00000000 UART8_IRQHandler
200000c4 g     O .bss	00000004 pUSBHS_Descr
200000d8 g     O .bss	00000002 USBHS_HidProtocol
00003db8 g     F .text	00000040 printf
200008a8 g       .data	00000000 __global_pointer$
00002366  w      .text	00000000 TIM1_CC_IRQHandler
00004de2 g     F .text	00000030 __sseek
000042d8 g     F .text	00000066 __sinit
00003ed6 g     F .text	000000bc __swbuf_r
00000270 g     F .text	00000016 HardFault_Handler
00004292 g     F .text	00000046 __sfmoreglue
00004f06 g     F .text	00000002 __malloc_unlock
00002590 g     F .text	0000003e ADC_DMACmd
00002366  w      .text	00000000 TIM6_IRQHandler
00002366  w      .text	00000000 SysTick_Handler
00002620 g     F .text	00000022 ADC_StartCalibration
00003322 g     F .text	000000d0 NVIC_Init
00002366  w      .text	00000000 PVD_IRQHandler
00002366  w      .text	00000000 SDIO_IRQHandler
00002366  w      .text	00000000 TIM9_BRK_IRQHandler
00002366  w      .text	00000000 DMA2_Channel8_IRQHandler
00000268 g     F .text	00000008 NMI_Handler
00003742 g     F .text	00000040 RCC_USBHSPHYPLLALIVEcmd
00002366  w      .text	00000000 CAN2_RX1_IRQHandler
00002366  w      .text	00000000 EXTI3_IRQHandler
20000144 g     O .bss	00000200 USBHS_EP1_TX_Buf
00002b0c g     F .text	00000018 DBGMCU_GetCHIPID
00000286 g     F .text	000002ce USB_TestMode_Deal
000009ac g     F .text	00000c12 USBHS_IRQHandler
00003aa4 g     F .text	00000044 USART_GetFlagStatus
00002366  w      .text	00000000 DMA2_Channel9_IRQHandler
00004e6e g     F .text	0000002a _fstat_r
00002366  w      .text	00000000 TIM10_CC_IRQHandler
20000564 g     O .bss	00000004 errno
200000c0 g       .bss	00000000 _sbss
00000800 g       *ABS*	00000000 __stack_size
00002e36 g     F .text	000000a8 DMA_Init
00002366  w      .text	00000000 USBFS_IRQHandler
00003782 g     F .text	0000003e RCC_USBCLK48MConfig
20000104 g     O .bss	00000040 USBHS_EP0_Buf
000050d0 g     O .text	00000012 MyDevDescr
00003d06 g     F .text	000000b2 memcpy
00002552 g     F .text	0000003e ADC_Cmd
00004288 g     F .text	0000000a _cleanup_r
00002366  w      .text	00000000 EXTI0_IRQHandler
00002366  w      .text	00000000 I2C2_EV_IRQHandler
00002366  w      .text	00000000 TIM10_TRG_COM_IRQHandler
200000da g     O .bss	00000002 Calibrattion_Val
00003928 g     F .text	00000050 TIM_Cmd
00003ecc g     F .text	0000000a puts
200000ae g     O .data	00000002 KB_Scan_Last_Result
200000a8 g     O .data	00000004 SystemCoreClock
200000d0 g     O .bss	00000001 USBHS_DevConfig
00004f40 g     F .text	0000000c _fstat
00000004 g       .init	00000000 _einit
000036ca g     F .text	0000003c RCC_USBHSPLLCLKConfig
00003a4c g     F .text	0000002c TIM_ClearITPendingBit
200000c9 g     O .bss	00000001 USBHS_SetupReqType
000035bc g     F .text	00000046 RCC_APB2PeriphClockCmd
00002366  w      .text	00000000 CAN2_SCE_IRQHandler
00002366  w      .text	00000000 ADC1_2_IRQHandler
000030e6 g     F .text	00000222 GPIO_Init
00003530 g     F .text	00000046 RCC_ADCCLKConfig
00002366  w      .text	00000000 Break_Point_Handler
200000dc g     O .bss	00000001 KB_Scan_Done
200000f4 g     O .bss	00000004 NVIC_Priority_Group
00002366  w      .text	00000000 SPI1_IRQHandler
000025ce g     F .text	00000022 ADC_ResetCalibration
00004d44 g     F .text	0000002a _sbrk_r
00002366  w      .text	00000000 TAMPER_IRQHandler
200000b8 g     O .data	00000004 MyLangDescr
00004f08 g     F .text	0000002c _read_r
00002366  w      .text	00000000 CAN2_RX0_IRQHandler
00005120 g     O .text	0000003e KeyRepDesc
00002366  w      .text	00000000 TIM8_UP_IRQHandler
00003602 g     F .text	00000046 RCC_APB1PeriphClockCmd
00002366  w      .text	00000000 Ecall_M_Mode_Handler
000050e4 g     O .text	0000003b MyCfgDescr
20007800 g       .stack	00000000 _heap_end
00004f4c g     F .text	0000000c _isatty
200000e0 g     O .bss	00000008 KB_Data_Pack
00003b2e g     F .text	00000084 Delay_Us
200000bc g     O .data	00000004 _global_impure_ptr
00002366  w      .text	00000000 DMA2_Channel2_IRQHandler
00003576 g     F .text	00000046 RCC_AHBPeriphClockCmd
00002366  w      .text	00000000 DMA1_Channel4_IRQHandler
000026b6 g     F .text	00000248 ADC_RegularChannelConfig
00003cac g     F .text	0000005a _sbrk
000051a0 g     O .text	0000000e MyManuInfo
200000ca g     O .bss	00000002 USBHS_SetupReqValue
200000cc g     O .bss	00000002 USBHS_SetupReqIndex
200000d1 g     O .bss	00000001 USBHS_DevAddr
00002366  w      .text	00000000 TIM9_UP_IRQHandler
00002366  w      .text	00000000 USART3_IRQHandler
00002366  w      .text	00000000 RTC_IRQHandler
00002642 g     F .text	00000030 ADC_GetCalibrationStatus
20000568 g       .bss	00000000 _ebss
00002366  w      .text	00000000 DMA1_Channel7_IRQHandler
00002672 g     F .text	00000044 ADC_SoftwareStartConvCmd
00003706 g     F .text	0000003c RCC_USBHSPLLCKREFCLKConfig
000025f0 g     F .text	00000030 ADC_GetResetCalibrationStatus
00002366  w      .text	00000000 CAN1_RX1_IRQHandler
00003ae8 g     F .text	00000046 Delay_Init
00002366  w      .text	00000000 DVP_IRQHandler
00002366  w      .text	00000000 UART5_IRQHandler
200000ea g     O .bss	00000001 USART_Send_Cnt
00002366  w      .text	00000000 TIM4_IRQHandler
0000308e g     F .text	00000038 EXTI_GetFlagStatus
00002366  w      .text	00000000 DMA2_Channel1_IRQHandler
000051dc g     O .text	00000020 __sf_fake_stderr
00002366  w      .text	00000000 I2C1_EV_IRQHandler
00000554 g     F .text	0000003c USBHS_RCC_Init
00000738 g     F .text	00000274 USBHS_Endp_DataUp
000039e0 g     F .text	0000006c TIM_GetITStatus
00002366  w      .text	00000000 DMA1_Channel6_IRQHandler
000046d0 g     F .text	00000040 __sfputs_r
00002366  w      .text	00000000 UART4_IRQHandler
00002366  w      .text	00000000 DMA2_Channel4_IRQHandler
00004eec g     F .text	00000018 memchr
0000452c g     F .text	000000a8 _free_r
00001ad6 g     F .text	0000004e TIM3_IRQHandler
00002366  w      .text	00000000 RCC_IRQHandler
200000c8 g     O .bss	00000001 USBHS_SetupReqCode
00005194 g     O .text	0000000a MyQuaDesc
00001d72 g     F .text	000000fe adcKB
00002366  w      .text	00000000 TIM1_TRG_COM_IRQHandler
00002366  w      .text	00000000 DMA1_Channel1_IRQHandler
00000000 g       .init	00000000 _start
00002366  w      .text	00000000 DMA2_Channel7_IRQHandler
20000038 g     O .data	00000010 AHBPrescTable
000030c6 g     F .text	00000020 EXTI_ClearFlag
00004f58 g     F .text	0000000c _lseek
00002366  w      .text	00000000 EXTI15_10_IRQHandler
00003978 g     F .text	00000068 TIM_ITConfig
00002f1e g     F .text	00000170 EXTI_Init
0000368e g     F .text	0000003c RCC_USBHSConfig
00002366  w      .text	00000000 TIM7_IRQHandler
00004e46 g     F .text	00000028 _close_r
00002366  w      .text	00000000 CAN2_TX_IRQHandler
20000000 g       .dalign	00000000 _data_vma
00002366  w      .text	00000000 TIM5_IRQHandler
00005160 g     O .text	00000034 MouseRepDesc
00000640 g     F .text	000000f8 USBHS_Device_Init
00003f92 g     F .text	000000fc __swsetup_r
00002366  w      .text	00000000 EXTI9_5_IRQHandler
0000433e g     F .text	0000009c __sfp
00004d6e g     F .text	0000002c __sread
00002366  w      .text	00000000 ETH_WKUP_IRQHandler
00004f04 g     F .text	00000002 __malloc_lock
00001e70 g     F .text	00000088 KB_Scan
000041be g     F .text	00000064 _fflush_r
00002366  w      .text	00000000 SPI2_IRQHandler
000051fc g     O .text	00000020 __sf_fake_stdin
000033f2 g     F .text	0000013e PWR_EnterSTOPMode
200000e9 g     O .bss	00000001 USART_Send_Flag
000001c0 g     F .text	000000a8 memset
0000161a g     F .text	0000009a main
00001a42 g     F .text	00000094 TIM3_Init
00002366  w      .text	00000000 TIM10_BRK_IRQHandler
00001b24 g     F .text	0000024e KB_Scan_Init
00002366  w      .text	00000000 TIM9_CC_IRQHandler
00004e12 g     F .text	00000006 __sclose
00002366  w      .text	00000000 DMA2_Channel5_IRQHandler
000045d4 g     F .text	000000d4 _malloc_r
000028fe g     F .text	0000020e Get_CalibrationValue
00002366  w      .text	00000000 DMA1_Channel5_IRQHandler
00002366  w      .text	00000000 EXTI4_IRQHandler
00003bb2 g     F .text	00000084 Delay_Ms
00002366  w      .text	00000000 USB_LP_CAN1_RX0_IRQHandler
000051b0 g     O .text	00000012 MyProdInfo
000016b4 g     F .text	00000098 SystemInit
00002366  w      .text	00000000 RNG_IRQHandler
200000ce g     O .bss	00000002 USBHS_SetupReqLen
00003db8 g     F .text	00000040 iprintf
200000d2 g     O .bss	00000001 USBHS_DevSleepStatus
00002366  w      .text	00000000 USB_HP_CAN1_TX_IRQHandler
00000000 g       .init	00000000 _sinit
00004e18 g     F .text	0000002e _write_r
20000000 g     O .data	00000035 IFTest_Buf
00002366  w      .text	00000000 DMA1_Channel3_IRQHandler
00002366  w      .text	00000000 ETH_IRQHandler
00004996 g     F .text	0000010c _printf_common
200000b4 g     O .data	00000004 _impure_ptr
00002366  w      .text	00000000 TIM1_UP_IRQHandler
0000408e g     F .text	00000130 __sflush_r
00002366  w      .text	00000000 WWDG_IRQHandler
00002366  w      .text	00000000 USBHSWakeup_IRQHandler
00002366  w      .text	00000000 DMA2_Channel11_IRQHandler
00002366  w      .text	00000000 Ecall_U_Mode_Handler
00002366  w      .text	00000000 DMA2_Channel6_IRQHandler
00002366  w      .text	00000000 TIM2_IRQHandler
20008000 g       .stack	00000000 _eusrstack
00002366  w      .text	00000000 SW_Handler
000023f2 g     F .text	00000060 ADC_DeInit
00002366  w      .text	00000000 TIM1_BRK_IRQHandler
00004444 g     F .text	00000058 __swhatbuf_r
00002452 g     F .text	00000100 ADC_Init
00003a78 g     F .text	0000002c USART_SendData
200000d4 g     O .bss	00000002 USBHS_HidIdle
00002366  w      .text	00000000 DMA2_Channel10_IRQHandler
00002366  w      .text	00000000 EXTI1_IRQHandler
00003c36 g     F .text	00000076 _write
200000c0 g       .data	00000000 _edata
20000568 g       .bss	00000000 _end
200000e8 g     O .bss	00000001 KB_LED_Cur_Status
000037c0 g     F .text	00000168 TIM_TimeBaseInit
00002366  w      .text	00000000 RTCAlarm_IRQHandler
00000590 g     F .text	000000b0 USBHS_Device_Endp_Init
00005278 g       .dlalign	00000000 _data_lma
00002366  w      .text	00000000 TIM10_UP_IRQHandler
00002366  w      .text	00000000 TIM9_TRG_COM_IRQHandler
00002366  w      .text	00000000 UART7_IRQHandler
00002366  w      .text	00000000 USART2_IRQHandler
00002366  w      .text	00000000 UART6_IRQHandler
00004d9a g     F .text	00000048 __swrite
00004710 g     F .text	00000286 _vfiprintf_r
000043da g     F .text	0000006a _fwalk_reent
0000174c g     F .text	000001ce SystemCoreClockUpdate
00002366  w      .text	00000000 I2C2_ER_IRQHandler
00002366  w      .text	00000000 DMA1_Channel2_IRQHandler
0000521c g     O .text	00000020 __sf_fake_stdout
00002366  w      .text	00000000 TIM8_BRK_IRQHandler
00004f64 g     F .text	0000000c _read
00002368  w      .text	00000000 handle_reset
00002366  w      .text	00000000 CAN1_SCE_IRQHandler
00002366  w      .text	00000000 FLASH_IRQHandler
00002366  w      .text	00000000 USART1_IRQHandler
0000449c g     F .text	00000090 __smakebuf_r
000015be g     F .text	0000005c USBHS_Send_Resume
00004aa2 g     F .text	000002a2 _printf_i
00002366  w      .text	00000000 SPI3_IRQHandler
000021f2 g     F .text	00000174 MCU_Sleep_Wakeup_Operate
20000100 g     O .bss	00000004 __malloc_sbrk_start
00003648 g     F .text	00000046 RCC_APB2PeriphResetCmd
00002366  w      .text	00000000 I2C1_ER_IRQHandler
00003308 g     F .text	0000001a NVIC_PriorityGroupConfig
00002b24 g     F .text	00000312 DMA_DeInit
200000d3 g     O .bss	00000001 USBHS_DevEnumStatus
200000fc g     O .bss	00000004 __malloc_free_list
20000544 g     O .bss	00000010 USBHS_Endp_Busy
200000ac g     O .data	00000002 KB_Scan_Result
00004710 g     F .text	00000286 _vfprintf_r
20000554 g     O .bss	0000000e ADC_Values
00002366  w      .text	00000000 USBWakeUp_IRQHandler
00004f34 g     F .text	0000000c _close
00001ef8 g     F .text	000002b4 KB_Scan_Handle
00002366  w      .text	00000000 DMA2_Channel3_IRQHandler
200000c0 g     O .bss	00000001 USBHS_Test_Flag



Disassembly of section .init:

00000000 <_sinit>:
   0:	3680206f          	j	2368 <handle_reset>

Disassembly of section .vector:

00000004 <_vector_base>:
	...
   c:	0268                	addi	a0,sp,268
   e:	0000                	unimp
  10:	0270                	addi	a2,sp,268
  12:	0000                	unimp
  14:	0000                	unimp
  16:	0000                	unimp
  18:	2366                	lhu	s1,6(a4)
	...
  22:	0000                	unimp
  24:	2366                	lhu	s1,6(a4)
  26:	0000                	unimp
  28:	2366                	lhu	s1,6(a4)
	...
  32:	0000                	unimp
  34:	2366                	lhu	s1,6(a4)
  36:	0000                	unimp
  38:	0000                	unimp
  3a:	0000                	unimp
  3c:	2366                	lhu	s1,6(a4)
  3e:	0000                	unimp
  40:	0000                	unimp
  42:	0000                	unimp
  44:	2366                	lhu	s1,6(a4)
  46:	0000                	unimp
  48:	2366                	lhu	s1,6(a4)
  4a:	0000                	unimp
  4c:	2366                	lhu	s1,6(a4)
  4e:	0000                	unimp
  50:	2366                	lhu	s1,6(a4)
  52:	0000                	unimp
  54:	2366                	lhu	s1,6(a4)
  56:	0000                	unimp
  58:	2366                	lhu	s1,6(a4)
  5a:	0000                	unimp
  5c:	2366                	lhu	s1,6(a4)
  5e:	0000                	unimp
  60:	2366                	lhu	s1,6(a4)
  62:	0000                	unimp
  64:	2366                	lhu	s1,6(a4)
  66:	0000                	unimp
  68:	2366                	lhu	s1,6(a4)
  6a:	0000                	unimp
  6c:	2366                	lhu	s1,6(a4)
  6e:	0000                	unimp
  70:	2366                	lhu	s1,6(a4)
  72:	0000                	unimp
  74:	2366                	lhu	s1,6(a4)
  76:	0000                	unimp
  78:	2366                	lhu	s1,6(a4)
  7a:	0000                	unimp
  7c:	2366                	lhu	s1,6(a4)
  7e:	0000                	unimp
  80:	2366                	lhu	s1,6(a4)
  82:	0000                	unimp
  84:	2366                	lhu	s1,6(a4)
  86:	0000                	unimp
  88:	2366                	lhu	s1,6(a4)
  8a:	0000                	unimp
  8c:	2366                	lhu	s1,6(a4)
  8e:	0000                	unimp
  90:	2366                	lhu	s1,6(a4)
  92:	0000                	unimp
  94:	2366                	lhu	s1,6(a4)
  96:	0000                	unimp
  98:	2366                	lhu	s1,6(a4)
  9a:	0000                	unimp
  9c:	2366                	lhu	s1,6(a4)
  9e:	0000                	unimp
  a0:	2366                	lhu	s1,6(a4)
  a2:	0000                	unimp
  a4:	2366                	lhu	s1,6(a4)
  a6:	0000                	unimp
  a8:	2366                	lhu	s1,6(a4)
  aa:	0000                	unimp
  ac:	2366                	lhu	s1,6(a4)
  ae:	0000                	unimp
  b0:	2366                	lhu	s1,6(a4)
  b2:	0000                	unimp
  b4:	2366                	lhu	s1,6(a4)
  b6:	0000                	unimp
  b8:	1ad6                	slli	s5,s5,0x35
  ba:	0000                	unimp
  bc:	2366                	lhu	s1,6(a4)
  be:	0000                	unimp
  c0:	2366                	lhu	s1,6(a4)
  c2:	0000                	unimp
  c4:	2366                	lhu	s1,6(a4)
  c6:	0000                	unimp
  c8:	2366                	lhu	s1,6(a4)
  ca:	0000                	unimp
  cc:	2366                	lhu	s1,6(a4)
  ce:	0000                	unimp
  d0:	2366                	lhu	s1,6(a4)
  d2:	0000                	unimp
  d4:	2366                	lhu	s1,6(a4)
  d6:	0000                	unimp
  d8:	2366                	lhu	s1,6(a4)
  da:	0000                	unimp
  dc:	2366                	lhu	s1,6(a4)
  de:	0000                	unimp
  e0:	2366                	lhu	s1,6(a4)
  e2:	0000                	unimp
  e4:	2366                	lhu	s1,6(a4)
  e6:	0000                	unimp
  e8:	2366                	lhu	s1,6(a4)
  ea:	0000                	unimp
  ec:	2366                	lhu	s1,6(a4)
  ee:	0000                	unimp
  f0:	2366                	lhu	s1,6(a4)
  f2:	0000                	unimp
  f4:	2366                	lhu	s1,6(a4)
  f6:	0000                	unimp
  f8:	2366                	lhu	s1,6(a4)
  fa:	0000                	unimp
  fc:	2366                	lhu	s1,6(a4)
  fe:	0000                	unimp
 100:	2366                	lhu	s1,6(a4)
 102:	0000                	unimp
 104:	0000                	unimp
 106:	0000                	unimp
 108:	2366                	lhu	s1,6(a4)
 10a:	0000                	unimp
 10c:	2366                	lhu	s1,6(a4)
 10e:	0000                	unimp
 110:	2366                	lhu	s1,6(a4)
 112:	0000                	unimp
 114:	2366                	lhu	s1,6(a4)
 116:	0000                	unimp
 118:	2366                	lhu	s1,6(a4)
 11a:	0000                	unimp
 11c:	2366                	lhu	s1,6(a4)
 11e:	0000                	unimp
 120:	2366                	lhu	s1,6(a4)
 122:	0000                	unimp
 124:	2366                	lhu	s1,6(a4)
 126:	0000                	unimp
 128:	2366                	lhu	s1,6(a4)
 12a:	0000                	unimp
 12c:	2366                	lhu	s1,6(a4)
 12e:	0000                	unimp
 130:	2366                	lhu	s1,6(a4)
 132:	0000                	unimp
 134:	2366                	lhu	s1,6(a4)
 136:	0000                	unimp
 138:	2366                	lhu	s1,6(a4)
 13a:	0000                	unimp
 13c:	2366                	lhu	s1,6(a4)
 13e:	0000                	unimp
 140:	2366                	lhu	s1,6(a4)
 142:	0000                	unimp
 144:	2366                	lhu	s1,6(a4)
 146:	0000                	unimp
 148:	2366                	lhu	s1,6(a4)
 14a:	0000                	unimp
 14c:	2366                	lhu	s1,6(a4)
 14e:	0000                	unimp
 150:	2366                	lhu	s1,6(a4)
 152:	0000                	unimp
 154:	2366                	lhu	s1,6(a4)
 156:	0000                	unimp
 158:	09ac                	addi	a1,sp,216
 15a:	0000                	unimp
 15c:	2366                	lhu	s1,6(a4)
 15e:	0000                	unimp
 160:	2366                	lhu	s1,6(a4)
 162:	0000                	unimp
 164:	2366                	lhu	s1,6(a4)
 166:	0000                	unimp
 168:	2366                	lhu	s1,6(a4)
 16a:	0000                	unimp
 16c:	2366                	lhu	s1,6(a4)
 16e:	0000                	unimp
 170:	2366                	lhu	s1,6(a4)
 172:	0000                	unimp
 174:	2366                	lhu	s1,6(a4)
 176:	0000                	unimp
 178:	2366                	lhu	s1,6(a4)
 17a:	0000                	unimp
 17c:	2366                	lhu	s1,6(a4)
 17e:	0000                	unimp
 180:	2366                	lhu	s1,6(a4)
 182:	0000                	unimp
 184:	2366                	lhu	s1,6(a4)
 186:	0000                	unimp
 188:	2366                	lhu	s1,6(a4)
 18a:	0000                	unimp
 18c:	2366                	lhu	s1,6(a4)
 18e:	0000                	unimp
 190:	2366                	lhu	s1,6(a4)
 192:	0000                	unimp
 194:	2366                	lhu	s1,6(a4)
 196:	0000                	unimp
 198:	2366                	lhu	s1,6(a4)
 19a:	0000                	unimp
 19c:	2366                	lhu	s1,6(a4)
 19e:	0000                	unimp
 1a0:	2366                	lhu	s1,6(a4)
	...

Disassembly of section .text:

000001c0 <memset>:
     1c0:	433d                	li	t1,15
     1c2:	872a                	mv	a4,a0
     1c4:	02c37363          	bgeu	t1,a2,1ea <memset+0x2a>
     1c8:	00f77793          	andi	a5,a4,15
     1cc:	efbd                	bnez	a5,24a <memset+0x8a>
     1ce:	e5ad                	bnez	a1,238 <memset+0x78>
     1d0:	ff067693          	andi	a3,a2,-16
     1d4:	8a3d                	andi	a2,a2,15
     1d6:	96ba                	add	a3,a3,a4
     1d8:	c30c                	sw	a1,0(a4)
     1da:	c34c                	sw	a1,4(a4)
     1dc:	c70c                	sw	a1,8(a4)
     1de:	c74c                	sw	a1,12(a4)
     1e0:	0741                	addi	a4,a4,16
     1e2:	fed76be3          	bltu	a4,a3,1d8 <memset+0x18>
     1e6:	e211                	bnez	a2,1ea <memset+0x2a>
     1e8:	8082                	ret
     1ea:	40c306b3          	sub	a3,t1,a2
     1ee:	068a                	slli	a3,a3,0x2
     1f0:	00000297          	auipc	t0,0x0
     1f4:	9696                	add	a3,a3,t0
     1f6:	00a68067          	jr	10(a3)
     1fa:	00b70723          	sb	a1,14(a4)
     1fe:	00b706a3          	sb	a1,13(a4)
     202:	00b70623          	sb	a1,12(a4)
     206:	00b705a3          	sb	a1,11(a4)
     20a:	00b70523          	sb	a1,10(a4)
     20e:	00b704a3          	sb	a1,9(a4)
     212:	00b70423          	sb	a1,8(a4)
     216:	00b703a3          	sb	a1,7(a4)
     21a:	00b70323          	sb	a1,6(a4)
     21e:	00b702a3          	sb	a1,5(a4)
     222:	00b70223          	sb	a1,4(a4)
     226:	00b701a3          	sb	a1,3(a4)
     22a:	00b70123          	sb	a1,2(a4)
     22e:	00b700a3          	sb	a1,1(a4)
     232:	00b70023          	sb	a1,0(a4)
     236:	8082                	ret
     238:	0ff5f593          	andi	a1,a1,255
     23c:	00859693          	slli	a3,a1,0x8
     240:	8dd5                	or	a1,a1,a3
     242:	01059693          	slli	a3,a1,0x10
     246:	8dd5                	or	a1,a1,a3
     248:	b761                	j	1d0 <memset+0x10>
     24a:	00279693          	slli	a3,a5,0x2
     24e:	00000297          	auipc	t0,0x0
     252:	9696                	add	a3,a3,t0
     254:	8286                	mv	t0,ra
     256:	fa8680e7          	jalr	-88(a3)
     25a:	8096                	mv	ra,t0
     25c:	17c1                	addi	a5,a5,-16
     25e:	8f1d                	sub	a4,a4,a5
     260:	963e                	add	a2,a2,a5
     262:	f8c374e3          	bgeu	t1,a2,1ea <memset+0x2a>
     266:	b7a5                	j	1ce <memset+0xe>

00000268 <NMI_Handler>:
     268:	1141                	addi	sp,sp,-16
     26a:	c622                	sw	s0,12(sp)
     26c:	0800                	addi	s0,sp,16
     26e:	a001                	j	26e <NMI_Handler+0x6>

00000270 <HardFault_Handler>:
     270:	1141                	addi	sp,sp,-16
     272:	c622                	sw	s0,12(sp)
     274:	0800                	addi	s0,sp,16
     276:	e000e7b7          	lui	a5,0xe000e
     27a:	beef0737          	lui	a4,0xbeef0
     27e:	08070713          	addi	a4,a4,128 # beef0080 <_eusrstack+0x9eee8080>
     282:	c7b8                	sw	a4,72(a5)
     284:	a001                	j	284 <HardFault_Handler+0x14>

00000286 <USB_TestMode_Deal>:
     286:	1141                	addi	sp,sp,-16
     288:	c622                	sw	s0,12(sp)
     28a:	0800                	addi	s0,sp,16
     28c:	8181c783          	lbu	a5,-2024(gp) # 200000c0 <_edata>
     290:	0ff7f793          	andi	a5,a5,255
     294:	07f7f793          	andi	a5,a5,127
     298:	0ff7f713          	andi	a4,a5,255
     29c:	80e18c23          	sb	a4,-2024(gp) # 200000c0 <_edata>
     2a0:	8241d783          	lhu	a5,-2012(gp) # 200000cc <USBHS_SetupReqIndex>
     2a4:	01079713          	slli	a4,a5,0x10
     2a8:	8341                	srli	a4,a4,0x10
     2aa:	10000793          	li	a5,256
     2ae:	04f71263          	bne	a4,a5,2f2 <USB_TestMode_Deal+0x6c>
     2b2:	400237b7          	lui	a5,0x40023
     2b6:	40078793          	addi	a5,a5,1024 # 40023400 <_eusrstack+0x2001b400>
     2ba:	23fc                	lbu	a5,6(a5)
     2bc:	0ff7f713          	andi	a4,a5,255
     2c0:	400237b7          	lui	a5,0x40023
     2c4:	40078793          	addi	a5,a5,1024 # 40023400 <_eusrstack+0x2001b400>
     2c8:	9b71                	andi	a4,a4,-4
     2ca:	0ff77713          	andi	a4,a4,255
     2ce:	a3f8                	sb	a4,6(a5)
     2d0:	400237b7          	lui	a5,0x40023
     2d4:	40078793          	addi	a5,a5,1024 # 40023400 <_eusrstack+0x2001b400>
     2d8:	23fc                	lbu	a5,6(a5)
     2da:	0ff7f713          	andi	a4,a5,255
     2de:	400237b7          	lui	a5,0x40023
     2e2:	40078793          	addi	a5,a5,1024 # 40023400 <_eusrstack+0x2001b400>
     2e6:	00276713          	ori	a4,a4,2
     2ea:	0ff77713          	andi	a4,a4,255
     2ee:	a3f8                	sb	a4,6(a5)
     2f0:	acb1                	j	54c <USB_TestMode_Deal+0x2c6>
     2f2:	8241d783          	lhu	a5,-2012(gp) # 200000cc <USBHS_SetupReqIndex>
     2f6:	01079713          	slli	a4,a5,0x10
     2fa:	8341                	srli	a4,a4,0x10
     2fc:	20000793          	li	a5,512
     300:	04f71263          	bne	a4,a5,344 <USB_TestMode_Deal+0xbe>
     304:	400237b7          	lui	a5,0x40023
     308:	40078793          	addi	a5,a5,1024 # 40023400 <_eusrstack+0x2001b400>
     30c:	23fc                	lbu	a5,6(a5)
     30e:	0ff7f713          	andi	a4,a5,255
     312:	400237b7          	lui	a5,0x40023
     316:	40078793          	addi	a5,a5,1024 # 40023400 <_eusrstack+0x2001b400>
     31a:	9b71                	andi	a4,a4,-4
     31c:	0ff77713          	andi	a4,a4,255
     320:	a3f8                	sb	a4,6(a5)
     322:	400237b7          	lui	a5,0x40023
     326:	40078793          	addi	a5,a5,1024 # 40023400 <_eusrstack+0x2001b400>
     32a:	23fc                	lbu	a5,6(a5)
     32c:	0ff7f713          	andi	a4,a5,255
     330:	400237b7          	lui	a5,0x40023
     334:	40078793          	addi	a5,a5,1024 # 40023400 <_eusrstack+0x2001b400>
     338:	00376713          	ori	a4,a4,3
     33c:	0ff77713          	andi	a4,a4,255
     340:	a3f8                	sb	a4,6(a5)
     342:	a429                	j	54c <USB_TestMode_Deal+0x2c6>
     344:	8241d783          	lhu	a5,-2012(gp) # 200000cc <USBHS_SetupReqIndex>
     348:	01079713          	slli	a4,a5,0x10
     34c:	8341                	srli	a4,a4,0x10
     34e:	30000793          	li	a5,768
     352:	02f71e63          	bne	a4,a5,38e <USB_TestMode_Deal+0x108>
     356:	400237b7          	lui	a5,0x40023
     35a:	40078793          	addi	a5,a5,1024 # 40023400 <_eusrstack+0x2001b400>
     35e:	23fc                	lbu	a5,6(a5)
     360:	0ff7f713          	andi	a4,a5,255
     364:	400237b7          	lui	a5,0x40023
     368:	40078793          	addi	a5,a5,1024 # 40023400 <_eusrstack+0x2001b400>
     36c:	9b71                	andi	a4,a4,-4
     36e:	0ff77713          	andi	a4,a4,255
     372:	a3f8                	sb	a4,6(a5)
     374:	400237b7          	lui	a5,0x40023
     378:	40078713          	addi	a4,a5,1024 # 40023400 <_eusrstack+0x2001b400>
     37c:	400237b7          	lui	a5,0x40023
     380:	40078793          	addi	a5,a5,1024 # 40023400 <_eusrstack+0x2001b400>
     384:	2378                	lbu	a4,6(a4)
     386:	0ff77713          	andi	a4,a4,255
     38a:	a3f8                	sb	a4,6(a5)
     38c:	a2c1                	j	54c <USB_TestMode_Deal+0x2c6>
     38e:	8241d783          	lhu	a5,-2012(gp) # 200000cc <USBHS_SetupReqIndex>
     392:	01079713          	slli	a4,a5,0x10
     396:	8341                	srli	a4,a4,0x10
     398:	40000793          	li	a5,1024
     39c:	1af71863          	bne	a4,a5,54c <USB_TestMode_Deal+0x2c6>
     3a0:	400237b7          	lui	a5,0x40023
     3a4:	40078793          	addi	a5,a5,1024 # 40023400 <_eusrstack+0x2001b400>
     3a8:	23fc                	lbu	a5,6(a5)
     3aa:	0ff7f713          	andi	a4,a5,255
     3ae:	400237b7          	lui	a5,0x40023
     3b2:	40078793          	addi	a5,a5,1024 # 40023400 <_eusrstack+0x2001b400>
     3b6:	9b71                	andi	a4,a4,-4
     3b8:	0ff77713          	andi	a4,a4,255
     3bc:	a3f8                	sb	a4,6(a5)
     3be:	400237b7          	lui	a5,0x40023
     3c2:	40078793          	addi	a5,a5,1024 # 40023400 <_eusrstack+0x2001b400>
     3c6:	23fc                	lbu	a5,6(a5)
     3c8:	0ff7f713          	andi	a4,a5,255
     3cc:	400237b7          	lui	a5,0x40023
     3d0:	40078793          	addi	a5,a5,1024 # 40023400 <_eusrstack+0x2001b400>
     3d4:	00176713          	ori	a4,a4,1
     3d8:	0ff77713          	andi	a4,a4,255
     3dc:	a3f8                	sb	a4,6(a5)
     3de:	400237b7          	lui	a5,0x40023
     3e2:	40078793          	addi	a5,a5,1024 # 40023400 <_eusrstack+0x2001b400>
     3e6:	239c                	lbu	a5,0(a5)
     3e8:	0ff7f713          	andi	a4,a5,255
     3ec:	400237b7          	lui	a5,0x40023
     3f0:	40078793          	addi	a5,a5,1024 # 40023400 <_eusrstack+0x2001b400>
     3f4:	f8076713          	ori	a4,a4,-128
     3f8:	0ff77713          	andi	a4,a4,255
     3fc:	a398                	sb	a4,0(a5)
     3fe:	400237b7          	lui	a5,0x40023
     402:	40078793          	addi	a5,a5,1024 # 40023400 <_eusrstack+0x2001b400>
     406:	2b98                	lbu	a4,16(a5)
     408:	8b01                	andi	a4,a4,0
     40a:	00876713          	ori	a4,a4,8
     40e:	ab98                	sb	a4,16(a5)
     410:	3b98                	lbu	a4,17(a5)
     412:	8b01                	andi	a4,a4,0
     414:	bb98                	sb	a4,17(a5)
     416:	2bb8                	lbu	a4,18(a5)
     418:	8b01                	andi	a4,a4,0
     41a:	00476713          	ori	a4,a4,4
     41e:	abb8                	sb	a4,18(a5)
     420:	3bb8                	lbu	a4,19(a5)
     422:	8b01                	andi	a4,a4,0
     424:	bbb8                	sb	a4,19(a5)
     426:	400237b7          	lui	a5,0x40023
     42a:	40078793          	addi	a5,a5,1024 # 40023400 <_eusrstack+0x2001b400>
     42e:	2bd8                	lbu	a4,20(a5)
     430:	0ff77713          	andi	a4,a4,255
     434:	3bd4                	lbu	a3,21(a5)
     436:	0ff6f693          	andi	a3,a3,255
     43a:	06a2                	slli	a3,a3,0x8
     43c:	8f55                	or	a4,a4,a3
     43e:	2bf4                	lbu	a3,22(a5)
     440:	0ff6f693          	andi	a3,a3,255
     444:	06c2                	slli	a3,a3,0x10
     446:	8f55                	or	a4,a4,a3
     448:	3bfc                	lbu	a5,23(a5)
     44a:	0ff7f793          	andi	a5,a5,255
     44e:	07e2                	slli	a5,a5,0x18
     450:	8fd9                	or	a5,a5,a4
     452:	873e                	mv	a4,a5
     454:	400237b7          	lui	a5,0x40023
     458:	40078793          	addi	a5,a5,1024 # 40023400 <_eusrstack+0x2001b400>
     45c:	0ff76713          	ori	a4,a4,255
     460:	0ff77593          	andi	a1,a4,255
     464:	2bd4                	lbu	a3,20(a5)
     466:	8a81                	andi	a3,a3,0
     468:	8636                	mv	a2,a3
     46a:	86ae                	mv	a3,a1
     46c:	8ed1                	or	a3,a3,a2
     46e:	abd4                	sb	a3,20(a5)
     470:	00875693          	srli	a3,a4,0x8
     474:	0ff6f593          	andi	a1,a3,255
     478:	3bd4                	lbu	a3,21(a5)
     47a:	8a81                	andi	a3,a3,0
     47c:	8636                	mv	a2,a3
     47e:	86ae                	mv	a3,a1
     480:	8ed1                	or	a3,a3,a2
     482:	bbd4                	sb	a3,21(a5)
     484:	01075693          	srli	a3,a4,0x10
     488:	0ff6f593          	andi	a1,a3,255
     48c:	2bf4                	lbu	a3,22(a5)
     48e:	8a81                	andi	a3,a3,0
     490:	8636                	mv	a2,a3
     492:	86ae                	mv	a3,a1
     494:	8ed1                	or	a3,a3,a2
     496:	abf4                	sb	a3,22(a5)
     498:	01875613          	srli	a2,a4,0x18
     49c:	3bf8                	lbu	a4,23(a5)
     49e:	8b01                	andi	a4,a4,0
     4a0:	86ba                	mv	a3,a4
     4a2:	8732                	mv	a4,a2
     4a4:	8f55                	or	a4,a4,a3
     4a6:	bbf8                	sb	a4,23(a5)
     4a8:	400237b7          	lui	a5,0x40023
     4ac:	40078793          	addi	a5,a5,1024 # 40023400 <_eusrstack+0x2001b400>
     4b0:	20000737          	lui	a4,0x20000
     4b4:	00070713          	mv	a4,a4
     4b8:	0ff77593          	andi	a1,a4,255
     4bc:	0647c683          	lbu	a3,100(a5)
     4c0:	8a81                	andi	a3,a3,0
     4c2:	8636                	mv	a2,a3
     4c4:	86ae                	mv	a3,a1
     4c6:	8ed1                	or	a3,a3,a2
     4c8:	06d78223          	sb	a3,100(a5)
     4cc:	00875693          	srli	a3,a4,0x8
     4d0:	0ff6f593          	andi	a1,a3,255
     4d4:	0657c683          	lbu	a3,101(a5)
     4d8:	8a81                	andi	a3,a3,0
     4da:	8636                	mv	a2,a3
     4dc:	86ae                	mv	a3,a1
     4de:	8ed1                	or	a3,a3,a2
     4e0:	06d782a3          	sb	a3,101(a5)
     4e4:	01075693          	srli	a3,a4,0x10
     4e8:	0ff6f593          	andi	a1,a3,255
     4ec:	0667c683          	lbu	a3,102(a5)
     4f0:	8a81                	andi	a3,a3,0
     4f2:	8636                	mv	a2,a3
     4f4:	86ae                	mv	a3,a1
     4f6:	8ed1                	or	a3,a3,a2
     4f8:	06d78323          	sb	a3,102(a5)
     4fc:	01875613          	srli	a2,a4,0x18
     500:	0677c703          	lbu	a4,103(a5)
     504:	8b01                	andi	a4,a4,0
     506:	86ba                	mv	a3,a4
     508:	8732                	mv	a4,a2
     50a:	8f55                	or	a4,a4,a3
     50c:	06e783a3          	sb	a4,103(a5)
     510:	400237b7          	lui	a5,0x40023
     514:	40078793          	addi	a5,a5,1024 # 40023400 <_eusrstack+0x2001b400>
     518:	0e47c703          	lbu	a4,228(a5)
     51c:	8b01                	andi	a4,a4,0
     51e:	03576713          	ori	a4,a4,53
     522:	0ee78223          	sb	a4,228(a5)
     526:	0e57c703          	lbu	a4,229(a5)
     52a:	8b01                	andi	a4,a4,0
     52c:	0ee782a3          	sb	a4,229(a5)
     530:	400237b7          	lui	a5,0x40023
     534:	40078793          	addi	a5,a5,1024 # 40023400 <_eusrstack+0x2001b400>
     538:	fd000713          	li	a4,-48
     53c:	0ee78023          	sb	a4,224(a5)
     540:	400237b7          	lui	a5,0x40023
     544:	40078793          	addi	a5,a5,1024 # 40023400 <_eusrstack+0x2001b400>
     548:	4709                	li	a4,2
     54a:	a7b8                	sb	a4,10(a5)
     54c:	0001                	nop
     54e:	4432                	lw	s0,12(sp)
     550:	0141                	addi	sp,sp,16
     552:	8082                	ret

00000554 <USBHS_RCC_Init>:
     554:	1141                	addi	sp,sp,-16
     556:	c606                	sw	ra,12(sp)
     558:	c422                	sw	s0,8(sp)
     55a:	0800                	addi	s0,sp,16
     55c:	4505                	li	a0,1
     55e:	224030ef          	jal	ra,3782 <RCC_USBCLK48MConfig>
     562:	4501                	li	a0,0
     564:	166030ef          	jal	ra,36ca <RCC_USBHSPLLCLKConfig>
     568:	4505                	li	a0,1
     56a:	124030ef          	jal	ra,368e <RCC_USBHSConfig>
     56e:	4505                	li	a0,1
     570:	196030ef          	jal	ra,3706 <RCC_USBHSPLLCKREFCLKConfig>
     574:	4505                	li	a0,1
     576:	1cc030ef          	jal	ra,3742 <RCC_USBHSPHYPLLALIVEcmd>
     57a:	4585                	li	a1,1
     57c:	6785                	lui	a5,0x1
     57e:	80078513          	addi	a0,a5,-2048 # 800 <__stack_size>
     582:	7f5020ef          	jal	ra,3576 <RCC_AHBPeriphClockCmd>
     586:	0001                	nop
     588:	40b2                	lw	ra,12(sp)
     58a:	4422                	lw	s0,8(sp)
     58c:	0141                	addi	sp,sp,16
     58e:	8082                	ret

00000590 <USBHS_Device_Endp_Init>:
     590:	1141                	addi	sp,sp,-16
     592:	c622                	sw	s0,12(sp)
     594:	0800                	addi	s0,sp,16
     596:	400237b7          	lui	a5,0x40023
     59a:	40078793          	addi	a5,a5,1024 # 40023400 <_eusrstack+0x2001b400>
     59e:	6741                	lui	a4,0x10
     5a0:	071d                	addi	a4,a4,7
     5a2:	cb98                	sw	a4,16(a5)
     5a4:	400237b7          	lui	a5,0x40023
     5a8:	40078793          	addi	a5,a5,1024 # 40023400 <_eusrstack+0x2001b400>
     5ac:	04000713          	li	a4,64
     5b0:	08e79c23          	sh	a4,152(a5)
     5b4:	400237b7          	lui	a5,0x40023
     5b8:	40078793          	addi	a5,a5,1024 # 40023400 <_eusrstack+0x2001b400>
     5bc:	20000713          	li	a4,512
     5c0:	08e79e23          	sh	a4,156(a5)
     5c4:	400237b7          	lui	a5,0x40023
     5c8:	40078793          	addi	a5,a5,1024 # 40023400 <_eusrstack+0x2001b400>
     5cc:	20000713          	li	a4,512
     5d0:	0ae79023          	sh	a4,160(a5)
     5d4:	400237b7          	lui	a5,0x40023
     5d8:	40078793          	addi	a5,a5,1024 # 40023400 <_eusrstack+0x2001b400>
     5dc:	85c18713          	addi	a4,gp,-1956 # 20000104 <USBHS_EP0_Buf>
     5e0:	cfd8                	sw	a4,28(a5)
     5e2:	400237b7          	lui	a5,0x40023
     5e6:	40078793          	addi	a5,a5,1024 # 40023400 <_eusrstack+0x2001b400>
     5ea:	20000737          	lui	a4,0x20000
     5ee:	14470713          	addi	a4,a4,324 # 20000144 <USBHS_EP1_TX_Buf>
     5f2:	cff8                	sw	a4,92(a5)
     5f4:	400237b7          	lui	a5,0x40023
     5f8:	40078793          	addi	a5,a5,1024 # 40023400 <_eusrstack+0x2001b400>
     5fc:	a9c18713          	addi	a4,gp,-1380 # 20000344 <USBHS_EP2_TX_Buf>
     600:	d3b8                	sw	a4,96(a5)
     602:	400237b7          	lui	a5,0x40023
     606:	40078793          	addi	a5,a5,1024 # 40023400 <_eusrstack+0x2001b400>
     60a:	4709                	li	a4,2
     60c:	0ce78d23          	sb	a4,218(a5)
     610:	400237b7          	lui	a5,0x40023
     614:	40078793          	addi	a5,a5,1024 # 40023400 <_eusrstack+0x2001b400>
     618:	0c078da3          	sb	zero,219(a5)
     61c:	400237b7          	lui	a5,0x40023
     620:	40078793          	addi	a5,a5,1024 # 40023400 <_eusrstack+0x2001b400>
     624:	4709                	li	a4,2
     626:	0ce78f23          	sb	a4,222(a5)
     62a:	400237b7          	lui	a5,0x40023
     62e:	40078793          	addi	a5,a5,1024 # 40023400 <_eusrstack+0x2001b400>
     632:	4709                	li	a4,2
     634:	0ee78123          	sb	a4,226(a5)
     638:	0001                	nop
     63a:	4432                	lw	s0,12(sp)
     63c:	0141                	addi	sp,sp,16
     63e:	8082                	ret

00000640 <USBHS_Device_Init>:
     640:	7179                	addi	sp,sp,-48
     642:	d606                	sw	ra,44(sp)
     644:	d422                	sw	s0,40(sp)
     646:	1800                	addi	s0,sp,48
     648:	fca42e23          	sw	a0,-36(s0)
     64c:	fdc42783          	lw	a5,-36(s0)
     650:	cbd1                	beqz	a5,6e4 <USBHS_Device_Init+0xa4>
     652:	400237b7          	lui	a5,0x40023
     656:	40078793          	addi	a5,a5,1024 # 40023400 <_eusrstack+0x2001b400>
     65a:	4719                	li	a4,6
     65c:	a398                	sb	a4,0(a5)
     65e:	4529                	li	a0,10
     660:	4ce030ef          	jal	ra,3b2e <Delay_Us>
     664:	400237b7          	lui	a5,0x40023
     668:	40078793          	addi	a5,a5,1024 # 40023400 <_eusrstack+0x2001b400>
     66c:	00078023          	sb	zero,0(a5)
     670:	400237b7          	lui	a5,0x40023
     674:	40078793          	addi	a5,a5,1024 # 40023400 <_eusrstack+0x2001b400>
     678:	4741                	li	a4,16
     67a:	b398                	sb	a4,1(a5)
     67c:	400237b7          	lui	a5,0x40023
     680:	40078793          	addi	a5,a5,1024 # 40023400 <_eusrstack+0x2001b400>
     684:	02900713          	li	a4,41
     688:	a398                	sb	a4,0(a5)
     68a:	400237b7          	lui	a5,0x40023
     68e:	40078793          	addi	a5,a5,1024 # 40023400 <_eusrstack+0x2001b400>
     692:	02700713          	li	a4,39
     696:	a3b8                	sb	a4,2(a5)
     698:	3de5                	jal	590 <USBHS_Device_Endp_Init>
     69a:	400237b7          	lui	a5,0x40023
     69e:	40078793          	addi	a5,a5,1024 # 40023400 <_eusrstack+0x2001b400>
     6a2:	239c                	lbu	a5,0(a5)
     6a4:	0ff7f713          	andi	a4,a5,255
     6a8:	400237b7          	lui	a5,0x40023
     6ac:	40078793          	addi	a5,a5,1024 # 40023400 <_eusrstack+0x2001b400>
     6b0:	01076713          	ori	a4,a4,16
     6b4:	0ff77713          	andi	a4,a4,255
     6b8:	a398                	sb	a4,0(a5)
     6ba:	05500793          	li	a5,85
     6be:	fef42623          	sw	a5,-20(s0)
     6c2:	fec42783          	lw	a5,-20(s0)
     6c6:	8bfd                	andi	a5,a5,31
     6c8:	4705                	li	a4,1
     6ca:	00f716b3          	sll	a3,a4,a5
     6ce:	e000e737          	lui	a4,0xe000e
     6d2:	fec42783          	lw	a5,-20(s0)
     6d6:	8395                	srli	a5,a5,0x5
     6d8:	04078793          	addi	a5,a5,64
     6dc:	078a                	slli	a5,a5,0x2
     6de:	97ba                	add	a5,a5,a4
     6e0:	c394                	sw	a3,0(a5)
     6e2:	a0b1                	j	72e <USBHS_Device_Init+0xee>
     6e4:	400237b7          	lui	a5,0x40023
     6e8:	40078793          	addi	a5,a5,1024 # 40023400 <_eusrstack+0x2001b400>
     6ec:	4719                	li	a4,6
     6ee:	a398                	sb	a4,0(a5)
     6f0:	4529                	li	a0,10
     6f2:	43c030ef          	jal	ra,3b2e <Delay_Us>
     6f6:	400237b7          	lui	a5,0x40023
     6fa:	40078793          	addi	a5,a5,1024 # 40023400 <_eusrstack+0x2001b400>
     6fe:	00078023          	sb	zero,0(a5)
     702:	05500793          	li	a5,85
     706:	fef42423          	sw	a5,-24(s0)
     70a:	fe842783          	lw	a5,-24(s0)
     70e:	8bfd                	andi	a5,a5,31
     710:	4705                	li	a4,1
     712:	00f716b3          	sll	a3,a4,a5
     716:	e000e737          	lui	a4,0xe000e
     71a:	fe842783          	lw	a5,-24(s0)
     71e:	8395                	srli	a5,a5,0x5
     720:	06078793          	addi	a5,a5,96
     724:	078a                	slli	a5,a5,0x2
     726:	97ba                	add	a5,a5,a4
     728:	c394                	sw	a3,0(a5)
     72a:	0000100f          	fence.i
     72e:	0001                	nop
     730:	50b2                	lw	ra,44(sp)
     732:	5422                	lw	s0,40(sp)
     734:	6145                	addi	sp,sp,48
     736:	8082                	ret

00000738 <USBHS_Endp_DataUp>:
     738:	7179                	addi	sp,sp,-48
     73a:	d606                	sw	ra,44(sp)
     73c:	d422                	sw	s0,40(sp)
     73e:	1800                	addi	s0,sp,48
     740:	87aa                	mv	a5,a0
     742:	fcb42c23          	sw	a1,-40(s0)
     746:	8736                	mv	a4,a3
     748:	fcf40fa3          	sb	a5,-33(s0)
     74c:	87b2                	mv	a5,a2
     74e:	fcf41e23          	sh	a5,-36(s0)
     752:	87ba                	mv	a5,a4
     754:	fcf40f23          	sb	a5,-34(s0)
     758:	fdf44783          	lbu	a5,-33(s0)
     75c:	24078263          	beqz	a5,9a0 <__stack_size+0x1a0>
     760:	fdf44703          	lbu	a4,-33(s0)
     764:	47bd                	li	a5,15
     766:	22e7ed63          	bltu	a5,a4,9a0 <__stack_size+0x1a0>
     76a:	400237b7          	lui	a5,0x40023
     76e:	40078793          	addi	a5,a5,1024 # 40023400 <_eusrstack+0x2001b400>
     772:	4b9c                	lw	a5,16(a5)
     774:	fef407a3          	sb	a5,-17(s0)
     778:	fef44783          	lbu	a5,-17(s0)
     77c:	fdf44703          	lbu	a4,-33(s0)
     780:	4685                	li	a3,1
     782:	00e69733          	sll	a4,a3,a4
     786:	0742                	slli	a4,a4,0x10
     788:	8341                	srli	a4,a4,0x10
     78a:	8ff9                	and	a5,a5,a4
     78c:	20078863          	beqz	a5,99c <__stack_size+0x19c>
     790:	fdf44703          	lbu	a4,-33(s0)
     794:	c9c18793          	addi	a5,gp,-868 # 20000544 <USBHS_Endp_Busy>
     798:	97ba                	add	a5,a5,a4
     79a:	239c                	lbu	a5,0(a5)
     79c:	0ff7f793          	andi	a5,a5,255
     7a0:	8b85                	andi	a5,a5,1
     7a2:	1e079b63          	bnez	a5,998 <__stack_size+0x198>
     7a6:	400237b7          	lui	a5,0x40023
     7aa:	40078793          	addi	a5,a5,1024 # 40023400 <_eusrstack+0x2001b400>
     7ae:	4f9c                	lw	a5,24(a5)
     7b0:	fef40723          	sb	a5,-18(s0)
     7b4:	fee44783          	lbu	a5,-18(s0)
     7b8:	fdf44703          	lbu	a4,-33(s0)
     7bc:	4685                	li	a3,1
     7be:	00e69733          	sll	a4,a3,a4
     7c2:	0742                	slli	a4,a4,0x10
     7c4:	8341                	srli	a4,a4,0x10
     7c6:	8ff9                	and	a5,a5,a4
     7c8:	c7e5                	beqz	a5,8b0 <__stack_size+0xb0>
     7ca:	fef44783          	lbu	a5,-17(s0)
     7ce:	fdf44703          	lbu	a4,-33(s0)
     7d2:	0741                	addi	a4,a4,16
     7d4:	4685                	li	a3,1
     7d6:	00e69733          	sll	a4,a3,a4
     7da:	0742                	slli	a4,a4,0x10
     7dc:	8341                	srli	a4,a4,0x10
     7de:	8ff9                	and	a5,a5,a4
     7e0:	e7f1                	bnez	a5,8ac <__stack_size+0xac>
     7e2:	fdf44783          	lbu	a5,-33(s0)
     7e6:	17fd                	addi	a5,a5,-1
     7e8:	00279713          	slli	a4,a5,0x2
     7ec:	400237b7          	lui	a5,0x40023
     7f0:	4de78793          	addi	a5,a5,1246 # 400234de <_eusrstack+0x2001b4de>
     7f4:	97ba                	add	a5,a5,a4
     7f6:	239c                	lbu	a5,0(a5)
     7f8:	fef406a3          	sb	a5,-19(s0)
     7fc:	fde44783          	lbu	a5,-34(s0)
     800:	ef9d                	bnez	a5,83e <__stack_size+0x3e>
     802:	fed44783          	lbu	a5,-19(s0)
     806:	8ba1                	andi	a5,a5,8
     808:	ef91                	bnez	a5,824 <__stack_size+0x24>
     80a:	fdf44703          	lbu	a4,-33(s0)
     80e:	100097b7          	lui	a5,0x10009
     812:	d1678793          	addi	a5,a5,-746 # 10008d16 <_data_lma+0x10003a9e>
     816:	97ba                	add	a5,a5,a4
     818:	078a                	slli	a5,a5,0x2
     81a:	873e                	mv	a4,a5
     81c:	fd842783          	lw	a5,-40(s0)
     820:	c31c                	sw	a5,0(a4)
     822:	a0e5                	j	90a <__stack_size+0x10a>
     824:	fdf44703          	lbu	a4,-33(s0)
     828:	100097b7          	lui	a5,0x10009
     82c:	d0778793          	addi	a5,a5,-761 # 10008d07 <_data_lma+0x10003a8f>
     830:	97ba                	add	a5,a5,a4
     832:	078a                	slli	a5,a5,0x2
     834:	873e                	mv	a4,a5
     836:	fd842783          	lw	a5,-40(s0)
     83a:	c31c                	sw	a5,0(a4)
     83c:	a0f9                	j	90a <__stack_size+0x10a>
     83e:	fde44703          	lbu	a4,-34(s0)
     842:	4785                	li	a5,1
     844:	06f71263          	bne	a4,a5,8a8 <__stack_size+0xa8>
     848:	fed44783          	lbu	a5,-19(s0)
     84c:	8ba1                	andi	a5,a5,8
     84e:	e79d                	bnez	a5,87c <__stack_size+0x7c>
     850:	fdf44703          	lbu	a4,-33(s0)
     854:	100097b7          	lui	a5,0x10009
     858:	d1678793          	addi	a5,a5,-746 # 10008d16 <_data_lma+0x10003a9e>
     85c:	97ba                	add	a5,a5,a4
     85e:	078a                	slli	a5,a5,0x2
     860:	4398                	lw	a4,0(a5)
     862:	200007b7          	lui	a5,0x20000
     866:	97ba                	add	a5,a5,a4
     868:	873e                	mv	a4,a5
     86a:	fdc45783          	lhu	a5,-36(s0)
     86e:	863e                	mv	a2,a5
     870:	fd842583          	lw	a1,-40(s0)
     874:	853a                	mv	a0,a4
     876:	490030ef          	jal	ra,3d06 <memcpy>
     87a:	a841                	j	90a <__stack_size+0x10a>
     87c:	fdf44703          	lbu	a4,-33(s0)
     880:	100097b7          	lui	a5,0x10009
     884:	d0778793          	addi	a5,a5,-761 # 10008d07 <_data_lma+0x10003a8f>
     888:	97ba                	add	a5,a5,a4
     88a:	078a                	slli	a5,a5,0x2
     88c:	4398                	lw	a4,0(a5)
     88e:	200007b7          	lui	a5,0x20000
     892:	97ba                	add	a5,a5,a4
     894:	873e                	mv	a4,a5
     896:	fdc45783          	lhu	a5,-36(s0)
     89a:	863e                	mv	a2,a5
     89c:	fd842583          	lw	a1,-40(s0)
     8a0:	853a                	mv	a0,a4
     8a2:	464030ef          	jal	ra,3d06 <memcpy>
     8a6:	a095                	j	90a <__stack_size+0x10a>
     8a8:	4781                	li	a5,0
     8aa:	a8e5                	j	9a2 <__stack_size+0x1a2>
     8ac:	4781                	li	a5,0
     8ae:	a8d5                	j	9a2 <__stack_size+0x1a2>
     8b0:	fde44783          	lbu	a5,-34(s0)
     8b4:	ef91                	bnez	a5,8d0 <__stack_size+0xd0>
     8b6:	fdf44703          	lbu	a4,-33(s0)
     8ba:	100097b7          	lui	a5,0x10009
     8be:	d1678793          	addi	a5,a5,-746 # 10008d16 <_data_lma+0x10003a9e>
     8c2:	97ba                	add	a5,a5,a4
     8c4:	078a                	slli	a5,a5,0x2
     8c6:	873e                	mv	a4,a5
     8c8:	fd842783          	lw	a5,-40(s0)
     8cc:	c31c                	sw	a5,0(a4)
     8ce:	a835                	j	90a <__stack_size+0x10a>
     8d0:	fde44703          	lbu	a4,-34(s0)
     8d4:	4785                	li	a5,1
     8d6:	02f71863          	bne	a4,a5,906 <__stack_size+0x106>
     8da:	fdf44703          	lbu	a4,-33(s0)
     8de:	100097b7          	lui	a5,0x10009
     8e2:	d1678793          	addi	a5,a5,-746 # 10008d16 <_data_lma+0x10003a9e>
     8e6:	97ba                	add	a5,a5,a4
     8e8:	078a                	slli	a5,a5,0x2
     8ea:	4398                	lw	a4,0(a5)
     8ec:	200007b7          	lui	a5,0x20000
     8f0:	97ba                	add	a5,a5,a4
     8f2:	873e                	mv	a4,a5
     8f4:	fdc45783          	lhu	a5,-36(s0)
     8f8:	863e                	mv	a2,a5
     8fa:	fd842583          	lw	a1,-40(s0)
     8fe:	853a                	mv	a0,a4
     900:	406030ef          	jal	ra,3d06 <memcpy>
     904:	a019                	j	90a <__stack_size+0x10a>
     906:	4781                	li	a5,0
     908:	a869                	j	9a2 <__stack_size+0x1a2>
     90a:	fdf44703          	lbu	a4,-33(s0)
     90e:	c9c18793          	addi	a5,gp,-868 # 20000544 <USBHS_Endp_Busy>
     912:	97ba                	add	a5,a5,a4
     914:	239c                	lbu	a5,0(a5)
     916:	0ff7f793          	andi	a5,a5,255
     91a:	fdf44683          	lbu	a3,-33(s0)
     91e:	0017e793          	ori	a5,a5,1
     922:	0ff7f713          	andi	a4,a5,255
     926:	c9c18793          	addi	a5,gp,-868 # 20000544 <USBHS_Endp_Busy>
     92a:	97b6                	add	a5,a5,a3
     92c:	a398                	sb	a4,0(a5)
     92e:	fdf44703          	lbu	a4,-33(s0)
     932:	100097b7          	lui	a5,0x10009
     936:	d3678793          	addi	a5,a5,-714 # 10008d36 <_data_lma+0x10003abe>
     93a:	97ba                	add	a5,a5,a4
     93c:	078a                	slli	a5,a5,0x2
     93e:	873e                	mv	a4,a5
     940:	fdc45783          	lhu	a5,-36(s0)
     944:	a31e                	sh	a5,0(a4)
     946:	fdf44783          	lbu	a5,-33(s0)
     94a:	17fd                	addi	a5,a5,-1
     94c:	00279713          	slli	a4,a5,0x2
     950:	400237b7          	lui	a5,0x40023
     954:	4de78793          	addi	a5,a5,1246 # 400234de <_eusrstack+0x2001b4de>
     958:	97ba                	add	a5,a5,a4
     95a:	239c                	lbu	a5,0(a5)
     95c:	0ff7f793          	andi	a5,a5,255
     960:	fdf44703          	lbu	a4,-33(s0)
     964:	177d                	addi	a4,a4,-1
     966:	00271693          	slli	a3,a4,0x2
     96a:	40023737          	lui	a4,0x40023
     96e:	4de70713          	addi	a4,a4,1246 # 400234de <_eusrstack+0x2001b4de>
     972:	9736                	add	a4,a4,a3
     974:	9bf1                	andi	a5,a5,-4
     976:	0ff7f793          	andi	a5,a5,255
     97a:	a31c                	sb	a5,0(a4)
     97c:	fdf44703          	lbu	a4,-33(s0)
     980:	177d                	addi	a4,a4,-1
     982:	00271693          	slli	a3,a4,0x2
     986:	40023737          	lui	a4,0x40023
     98a:	4de70713          	addi	a4,a4,1246 # 400234de <_eusrstack+0x2001b4de>
     98e:	9736                	add	a4,a4,a3
     990:	a31c                	sb	a5,0(a4)
     992:	0001                	nop
     994:	4785                	li	a5,1
     996:	a031                	j	9a2 <__stack_size+0x1a2>
     998:	4781                	li	a5,0
     99a:	a021                	j	9a2 <__stack_size+0x1a2>
     99c:	4781                	li	a5,0
     99e:	a011                	j	9a2 <__stack_size+0x1a2>
     9a0:	4781                	li	a5,0
     9a2:	853e                	mv	a0,a5
     9a4:	50b2                	lw	ra,44(sp)
     9a6:	5422                	lw	s0,40(sp)
     9a8:	6145                	addi	sp,sp,48
     9aa:	8082                	ret

000009ac <USBHS_IRQHandler>:
     9ac:	1101                	addi	sp,sp,-32
     9ae:	ce22                	sw	s0,28(sp)
     9b0:	1000                	addi	s0,sp,32
     9b2:	400237b7          	lui	a5,0x40023
     9b6:	40078793          	addi	a5,a5,1024 # 40023400 <_eusrstack+0x2001b400>
     9ba:	27bc                	lbu	a5,10(a5)
     9bc:	fef405a3          	sb	a5,-21(s0)
     9c0:	400237b7          	lui	a5,0x40023
     9c4:	40078793          	addi	a5,a5,1024 # 40023400 <_eusrstack+0x2001b400>
     9c8:	37bc                	lbu	a5,11(a5)
     9ca:	fef40523          	sb	a5,-22(s0)
     9ce:	feb44783          	lbu	a5,-21(s0)
     9d2:	8b89                	andi	a5,a5,2
     9d4:	2c078063          	beqz	a5,c94 <USBHS_IRQHandler+0x2e8>
     9d8:	fea44783          	lbu	a5,-22(s0)
     9dc:	0307f793          	andi	a5,a5,48
     9e0:	4741                	li	a4,16
     9e2:	2ae78063          	beq	a5,a4,c82 <USBHS_IRQHandler+0x2d6>
     9e6:	02000713          	li	a4,32
     9ea:	00e78563          	beq	a5,a4,9f4 <USBHS_IRQHandler+0x48>
     9ee:	20078663          	beqz	a5,bfa <USBHS_IRQHandler+0x24e>
     9f2:	ac49                	j	c84 <USBHS_IRQHandler+0x2d8>
     9f4:	fea44783          	lbu	a5,-22(s0)
     9f8:	03f7f793          	andi	a5,a5,63
     9fc:	02100713          	li	a4,33
     a00:	10e78963          	beq	a5,a4,b12 <USBHS_IRQHandler+0x166>
     a04:	02200713          	li	a4,34
     a08:	16e78d63          	beq	a5,a4,b82 <USBHS_IRQHandler+0x1d6>
     a0c:	02000713          	li	a4,32
     a10:	1ee79163          	bne	a5,a4,bf2 <USBHS_IRQHandler+0x246>
     a14:	8261d783          	lhu	a5,-2010(gp) # 200000ce <USBHS_SetupReqLen>
     a18:	07c2                	slli	a5,a5,0x10
     a1a:	83c1                	srli	a5,a5,0x10
     a1c:	eb81                	bnez	a5,a2c <USBHS_IRQHandler+0x80>
     a1e:	400237b7          	lui	a5,0x40023
     a22:	40078793          	addi	a5,a5,1024 # 40023400 <_eusrstack+0x2001b400>
     a26:	4721                	li	a4,8
     a28:	0ce78da3          	sb	a4,219(a5)
     a2c:	8211c783          	lbu	a5,-2015(gp) # 200000c9 <USBHS_SetupReqType>
     a30:	0ff7f793          	andi	a5,a5,255
     a34:	0607f793          	andi	a5,a5,96
     a38:	e3f1                	bnez	a5,afc <USBHS_IRQHandler+0x150>
     a3a:	8201c783          	lbu	a5,-2016(gp) # 200000c8 <USBHS_SetupReqCode>
     a3e:	0ff7f793          	andi	a5,a5,255
     a42:	4715                	li	a4,5
     a44:	0ae78163          	beq	a5,a4,ae6 <USBHS_IRQHandler+0x13a>
     a48:	4719                	li	a4,6
     a4a:	0ae79863          	bne	a5,a4,afa <USBHS_IRQHandler+0x14e>
     a4e:	8261d783          	lhu	a5,-2010(gp) # 200000ce <USBHS_SetupReqLen>
     a52:	01079713          	slli	a4,a5,0x10
     a56:	8341                	srli	a4,a4,0x10
     a58:	03f00793          	li	a5,63
     a5c:	00e7e763          	bltu	a5,a4,a6a <USBHS_IRQHandler+0xbe>
     a60:	8261d783          	lhu	a5,-2010(gp) # 200000ce <USBHS_SetupReqLen>
     a64:	07c2                	slli	a5,a5,0x10
     a66:	83c1                	srli	a5,a5,0x10
     a68:	a019                	j	a6e <USBHS_IRQHandler+0xc2>
     a6a:	04000793          	li	a5,64
     a6e:	fef41623          	sh	a5,-20(s0)
     a72:	81c1a783          	lw	a5,-2020(gp) # 200000c4 <pUSBHS_Descr>
     a76:	fec45703          	lhu	a4,-20(s0)
     a7a:	863a                	mv	a2,a4
     a7c:	85be                	mv	a1,a5
     a7e:	85c18513          	addi	a0,gp,-1956 # 20000104 <USBHS_EP0_Buf>
     a82:	284030ef          	jal	ra,3d06 <memcpy>
     a86:	8261d783          	lhu	a5,-2010(gp) # 200000ce <USBHS_SetupReqLen>
     a8a:	01079713          	slli	a4,a5,0x10
     a8e:	8341                	srli	a4,a4,0x10
     a90:	fec45783          	lhu	a5,-20(s0)
     a94:	40f707b3          	sub	a5,a4,a5
     a98:	01079713          	slli	a4,a5,0x10
     a9c:	8341                	srli	a4,a4,0x10
     a9e:	82e19323          	sh	a4,-2010(gp) # 200000ce <USBHS_SetupReqLen>
     aa2:	81c1a703          	lw	a4,-2020(gp) # 200000c4 <pUSBHS_Descr>
     aa6:	fec45783          	lhu	a5,-20(s0)
     aaa:	973e                	add	a4,a4,a5
     aac:	80e1ae23          	sw	a4,-2020(gp) # 200000c4 <pUSBHS_Descr>
     ab0:	400237b7          	lui	a5,0x40023
     ab4:	40078793          	addi	a5,a5,1024 # 40023400 <_eusrstack+0x2001b400>
     ab8:	fec45703          	lhu	a4,-20(s0)
     abc:	0ce79c23          	sh	a4,216(a5)
     ac0:	400237b7          	lui	a5,0x40023
     ac4:	40078793          	addi	a5,a5,1024 # 40023400 <_eusrstack+0x2001b400>
     ac8:	0da7c783          	lbu	a5,218(a5)
     acc:	0ff7f713          	andi	a4,a5,255
     ad0:	400237b7          	lui	a5,0x40023
     ad4:	40078793          	addi	a5,a5,1024 # 40023400 <_eusrstack+0x2001b400>
     ad8:	00874713          	xori	a4,a4,8
     adc:	0ff77713          	andi	a4,a4,255
     ae0:	0ce78d23          	sb	a4,218(a5)
     ae4:	a821                	j	afc <USBHS_IRQHandler+0x150>
     ae6:	400237b7          	lui	a5,0x40023
     aea:	40078793          	addi	a5,a5,1024 # 40023400 <_eusrstack+0x2001b400>
     aee:	8291c703          	lbu	a4,-2007(gp) # 200000d1 <USBHS_DevAddr>
     af2:	0ff77713          	andi	a4,a4,255
     af6:	b3b8                	sb	a4,3(a5)
     af8:	a011                	j	afc <USBHS_IRQHandler+0x150>
     afa:	0001                	nop
     afc:	8181c783          	lbu	a5,-2024(gp) # 200000c0 <_edata>
     b00:	0ff7f793          	andi	a5,a5,255
     b04:	07e2                	slli	a5,a5,0x18
     b06:	87e1                	srai	a5,a5,0x18
     b08:	0e07d763          	bgez	a5,bf6 <USBHS_IRQHandler+0x24a>
     b0c:	f7aff0ef          	jal	ra,286 <USB_TestMode_Deal>
     b10:	a0dd                	j	bf6 <USBHS_IRQHandler+0x24a>
     b12:	400237b7          	lui	a5,0x40023
     b16:	40078793          	addi	a5,a5,1024 # 40023400 <_eusrstack+0x2001b400>
     b1a:	0de7c783          	lbu	a5,222(a5)
     b1e:	0ff7f793          	andi	a5,a5,255
     b22:	07e2                	slli	a5,a5,0x18
     b24:	87e1                	srai	a5,a5,0x18
     b26:	9bf1                	andi	a5,a5,-4
     b28:	07e2                	slli	a5,a5,0x18
     b2a:	87e1                	srai	a5,a5,0x18
     b2c:	0027e793          	ori	a5,a5,2
     b30:	01879713          	slli	a4,a5,0x18
     b34:	8761                	srai	a4,a4,0x18
     b36:	400237b7          	lui	a5,0x40023
     b3a:	40078793          	addi	a5,a5,1024 # 40023400 <_eusrstack+0x2001b400>
     b3e:	0ff77713          	andi	a4,a4,255
     b42:	0ce78f23          	sb	a4,222(a5)
     b46:	400237b7          	lui	a5,0x40023
     b4a:	40078793          	addi	a5,a5,1024 # 40023400 <_eusrstack+0x2001b400>
     b4e:	0de7c783          	lbu	a5,222(a5)
     b52:	0ff7f713          	andi	a4,a5,255
     b56:	400237b7          	lui	a5,0x40023
     b5a:	40078793          	addi	a5,a5,1024 # 40023400 <_eusrstack+0x2001b400>
     b5e:	00874713          	xori	a4,a4,8
     b62:	0ff77713          	andi	a4,a4,255
     b66:	0ce78f23          	sb	a4,222(a5)
     b6a:	c9c18793          	addi	a5,gp,-868 # 20000544 <USBHS_Endp_Busy>
     b6e:	339c                	lbu	a5,1(a5)
     b70:	0ff7f793          	andi	a5,a5,255
     b74:	9bf9                	andi	a5,a5,-2
     b76:	0ff7f713          	andi	a4,a5,255
     b7a:	c9c18793          	addi	a5,gp,-868 # 20000544 <USBHS_Endp_Busy>
     b7e:	b398                	sb	a4,1(a5)
     b80:	a8a5                	j	bf8 <USBHS_IRQHandler+0x24c>
     b82:	400237b7          	lui	a5,0x40023
     b86:	40078793          	addi	a5,a5,1024 # 40023400 <_eusrstack+0x2001b400>
     b8a:	0e27c783          	lbu	a5,226(a5)
     b8e:	0ff7f793          	andi	a5,a5,255
     b92:	07e2                	slli	a5,a5,0x18
     b94:	87e1                	srai	a5,a5,0x18
     b96:	9bf1                	andi	a5,a5,-4
     b98:	07e2                	slli	a5,a5,0x18
     b9a:	87e1                	srai	a5,a5,0x18
     b9c:	0027e793          	ori	a5,a5,2
     ba0:	01879713          	slli	a4,a5,0x18
     ba4:	8761                	srai	a4,a4,0x18
     ba6:	400237b7          	lui	a5,0x40023
     baa:	40078793          	addi	a5,a5,1024 # 40023400 <_eusrstack+0x2001b400>
     bae:	0ff77713          	andi	a4,a4,255
     bb2:	0ee78123          	sb	a4,226(a5)
     bb6:	400237b7          	lui	a5,0x40023
     bba:	40078793          	addi	a5,a5,1024 # 40023400 <_eusrstack+0x2001b400>
     bbe:	0e27c783          	lbu	a5,226(a5)
     bc2:	0ff7f713          	andi	a4,a5,255
     bc6:	400237b7          	lui	a5,0x40023
     bca:	40078793          	addi	a5,a5,1024 # 40023400 <_eusrstack+0x2001b400>
     bce:	00874713          	xori	a4,a4,8
     bd2:	0ff77713          	andi	a4,a4,255
     bd6:	0ee78123          	sb	a4,226(a5)
     bda:	c9c18793          	addi	a5,gp,-868 # 20000544 <USBHS_Endp_Busy>
     bde:	23bc                	lbu	a5,2(a5)
     be0:	0ff7f793          	andi	a5,a5,255
     be4:	9bf9                	andi	a5,a5,-2
     be6:	0ff7f713          	andi	a4,a5,255
     bea:	c9c18793          	addi	a5,gp,-868 # 20000544 <USBHS_Endp_Busy>
     bee:	a3b8                	sb	a4,2(a5)
     bf0:	a021                	j	bf8 <USBHS_IRQHandler+0x24c>
     bf2:	0001                	nop
     bf4:	a841                	j	c84 <USBHS_IRQHandler+0x2d8>
     bf6:	0001                	nop
     bf8:	a071                	j	c84 <USBHS_IRQHandler+0x2d8>
     bfa:	fea44783          	lbu	a5,-22(s0)
     bfe:	03f7f793          	andi	a5,a5,63
     c02:	efa5                	bnez	a5,c7a <USBHS_IRQHandler+0x2ce>
     c04:	fea44783          	lbu	a5,-22(s0)
     c08:	0407f793          	andi	a5,a5,64
     c0c:	c7a1                	beqz	a5,c54 <USBHS_IRQHandler+0x2a8>
     c0e:	8211c783          	lbu	a5,-2015(gp) # 200000c9 <USBHS_SetupReqType>
     c12:	0ff7f793          	andi	a5,a5,255
     c16:	0607f793          	andi	a5,a5,96
     c1a:	cf8d                	beqz	a5,c54 <USBHS_IRQHandler+0x2a8>
     c1c:	8211c783          	lbu	a5,-2015(gp) # 200000c9 <USBHS_SetupReqType>
     c20:	0ff7f793          	andi	a5,a5,255
     c24:	0607f713          	andi	a4,a5,96
     c28:	02000793          	li	a5,32
     c2c:	02f71163          	bne	a4,a5,c4e <USBHS_IRQHandler+0x2a2>
     c30:	8201c783          	lbu	a5,-2016(gp) # 200000c8 <USBHS_SetupReqCode>
     c34:	0ff7f793          	andi	a5,a5,255
     c38:	873e                	mv	a4,a5
     c3a:	47a5                	li	a5,9
     c3c:	00f71b63          	bne	a4,a5,c52 <USBHS_IRQHandler+0x2a6>
     c40:	85c1c703          	lbu	a4,-1956(gp) # 20000104 <USBHS_EP0_Buf>
     c44:	84e18023          	sb	a4,-1984(gp) # 200000e8 <KB_LED_Cur_Status>
     c48:	82019323          	sh	zero,-2010(gp) # 200000ce <USBHS_SetupReqLen>
     c4c:	a021                	j	c54 <USBHS_IRQHandler+0x2a8>
     c4e:	0001                	nop
     c50:	a011                	j	c54 <USBHS_IRQHandler+0x2a8>
     c52:	0001                	nop
     c54:	8261d783          	lhu	a5,-2010(gp) # 200000ce <USBHS_SetupReqLen>
     c58:	07c2                	slli	a5,a5,0x10
     c5a:	83c1                	srli	a5,a5,0x10
     c5c:	e38d                	bnez	a5,c7e <USBHS_IRQHandler+0x2d2>
     c5e:	400237b7          	lui	a5,0x40023
     c62:	40078793          	addi	a5,a5,1024 # 40023400 <_eusrstack+0x2001b400>
     c66:	0c079c23          	sh	zero,216(a5)
     c6a:	400237b7          	lui	a5,0x40023
     c6e:	40078793          	addi	a5,a5,1024 # 40023400 <_eusrstack+0x2001b400>
     c72:	4721                	li	a4,8
     c74:	0ce78d23          	sb	a4,218(a5)
     c78:	a019                	j	c7e <USBHS_IRQHandler+0x2d2>
     c7a:	0001                	nop
     c7c:	a021                	j	c84 <USBHS_IRQHandler+0x2d8>
     c7e:	0001                	nop
     c80:	a011                	j	c84 <USBHS_IRQHandler+0x2d8>
     c82:	0001                	nop
     c84:	400237b7          	lui	a5,0x40023
     c88:	40078793          	addi	a5,a5,1024 # 40023400 <_eusrstack+0x2001b400>
     c8c:	4709                	li	a4,2
     c8e:	a7b8                	sb	a4,10(a5)
     c90:	1250006f          	j	15b4 <USBHS_IRQHandler+0xc08>
     c94:	feb44783          	lbu	a5,-21(s0)
     c98:	0207f793          	andi	a5,a5,32
     c9c:	060786e3          	beqz	a5,1508 <USBHS_IRQHandler+0xb5c>
     ca0:	400237b7          	lui	a5,0x40023
     ca4:	40078793          	addi	a5,a5,1024 # 40023400 <_eusrstack+0x2001b400>
     ca8:	4729                	li	a4,10
     caa:	0ce78d23          	sb	a4,218(a5)
     cae:	400237b7          	lui	a5,0x40023
     cb2:	40078793          	addi	a5,a5,1024 # 40023400 <_eusrstack+0x2001b400>
     cb6:	4729                	li	a4,10
     cb8:	0ce78da3          	sb	a4,219(a5)
     cbc:	85c18793          	addi	a5,gp,-1956 # 20000104 <USBHS_EP0_Buf>
     cc0:	2398                	lbu	a4,0(a5)
     cc2:	82e180a3          	sb	a4,-2015(gp) # 200000c9 <USBHS_SetupReqType>
     cc6:	85c18793          	addi	a5,gp,-1956 # 20000104 <USBHS_EP0_Buf>
     cca:	3398                	lbu	a4,1(a5)
     ccc:	82e18023          	sb	a4,-2016(gp) # 200000c8 <USBHS_SetupReqCode>
     cd0:	85c18793          	addi	a5,gp,-1956 # 20000104 <USBHS_EP0_Buf>
     cd4:	23f8                	lbu	a4,6(a5)
     cd6:	33fc                	lbu	a5,7(a5)
     cd8:	07a2                	slli	a5,a5,0x8
     cda:	8fd9                	or	a5,a5,a4
     cdc:	01079713          	slli	a4,a5,0x10
     ce0:	8341                	srli	a4,a4,0x10
     ce2:	82e19323          	sh	a4,-2010(gp) # 200000ce <USBHS_SetupReqLen>
     ce6:	85c18793          	addi	a5,gp,-1956 # 20000104 <USBHS_EP0_Buf>
     cea:	23b8                	lbu	a4,2(a5)
     cec:	33bc                	lbu	a5,3(a5)
     cee:	07a2                	slli	a5,a5,0x8
     cf0:	8fd9                	or	a5,a5,a4
     cf2:	01079713          	slli	a4,a5,0x10
     cf6:	8341                	srli	a4,a4,0x10
     cf8:	82e19123          	sh	a4,-2014(gp) # 200000ca <USBHS_SetupReqValue>
     cfc:	85c18793          	addi	a5,gp,-1956 # 20000104 <USBHS_EP0_Buf>
     d00:	23d8                	lbu	a4,4(a5)
     d02:	33dc                	lbu	a5,5(a5)
     d04:	07a2                	slli	a5,a5,0x8
     d06:	8fd9                	or	a5,a5,a4
     d08:	01079713          	slli	a4,a5,0x10
     d0c:	8341                	srli	a4,a4,0x10
     d0e:	82e19223          	sh	a4,-2012(gp) # 200000cc <USBHS_SetupReqIndex>
     d12:	fe041623          	sh	zero,-20(s0)
     d16:	fe0407a3          	sb	zero,-17(s0)
     d1a:	8211c783          	lbu	a5,-2015(gp) # 200000c9 <USBHS_SetupReqType>
     d1e:	0ff7f793          	andi	a5,a5,255
     d22:	0607f793          	andi	a5,a5,96
     d26:	16078d63          	beqz	a5,ea0 <USBHS_IRQHandler+0x4f4>
     d2a:	8211c783          	lbu	a5,-2015(gp) # 200000c9 <USBHS_SetupReqType>
     d2e:	0ff7f793          	andi	a5,a5,255
     d32:	0607f713          	andi	a4,a5,96
     d36:	02000793          	li	a5,32
     d3a:	6cf71963          	bne	a4,a5,140c <USBHS_IRQHandler+0xa60>
     d3e:	8201c783          	lbu	a5,-2016(gp) # 200000c8 <USBHS_SetupReqCode>
     d42:	0ff7f793          	andi	a5,a5,255
     d46:	472d                	li	a4,11
     d48:	14f76763          	bltu	a4,a5,e96 <USBHS_IRQHandler+0x4ea>
     d4c:	00279713          	slli	a4,a5,0x2
     d50:	6795                	lui	a5,0x5
     d52:	fe478793          	addi	a5,a5,-28 # 4fe4 <_read+0x80>
     d56:	97ba                	add	a5,a5,a4
     d58:	439c                	lw	a5,0(a5)
     d5a:	8782                	jr	a5
     d5c:	8241d783          	lhu	a5,-2012(gp) # 200000cc <USBHS_SetupReqIndex>
     d60:	07c2                	slli	a5,a5,0x10
     d62:	83c1                	srli	a5,a5,0x10
     d64:	ef91                	bnez	a5,d80 <USBHS_IRQHandler+0x3d4>
     d66:	8221d783          	lhu	a5,-2014(gp) # 200000ca <USBHS_SetupReqValue>
     d6a:	07c2                	slli	a5,a5,0x10
     d6c:	83c1                	srli	a5,a5,0x10
     d6e:	83a1                	srli	a5,a5,0x8
     d70:	07c2                	slli	a5,a5,0x10
     d72:	83c1                	srli	a5,a5,0x10
     d74:	0ff7f713          	andi	a4,a5,255
     d78:	82e18623          	sb	a4,-2004(gp) # 200000d4 <USBHS_HidIdle>
     d7c:	6ae0006f          	j	142a <USBHS_IRQHandler+0xa7e>
     d80:	8241d783          	lhu	a5,-2012(gp) # 200000cc <USBHS_SetupReqIndex>
     d84:	01079713          	slli	a4,a5,0x10
     d88:	8341                	srli	a4,a4,0x10
     d8a:	4785                	li	a5,1
     d8c:	02f71063          	bne	a4,a5,dac <USBHS_IRQHandler+0x400>
     d90:	8221d783          	lhu	a5,-2014(gp) # 200000ca <USBHS_SetupReqValue>
     d94:	07c2                	slli	a5,a5,0x10
     d96:	83c1                	srli	a5,a5,0x10
     d98:	83a1                	srli	a5,a5,0x8
     d9a:	07c2                	slli	a5,a5,0x10
     d9c:	83c1                	srli	a5,a5,0x10
     d9e:	0ff7f713          	andi	a4,a5,255
     da2:	82c18793          	addi	a5,gp,-2004 # 200000d4 <USBHS_HidIdle>
     da6:	b398                	sb	a4,1(a5)
     da8:	6820006f          	j	142a <USBHS_IRQHandler+0xa7e>
     dac:	57fd                	li	a5,-1
     dae:	fef407a3          	sb	a5,-17(s0)
     db2:	6780006f          	j	142a <USBHS_IRQHandler+0xa7e>
     db6:	8241d783          	lhu	a5,-2012(gp) # 200000cc <USBHS_SetupReqIndex>
     dba:	07c2                	slli	a5,a5,0x10
     dbc:	83c1                	srli	a5,a5,0x10
     dbe:	eb91                	bnez	a5,dd2 <USBHS_IRQHandler+0x426>
     dc0:	8221d783          	lhu	a5,-2014(gp) # 200000ca <USBHS_SetupReqValue>
     dc4:	07c2                	slli	a5,a5,0x10
     dc6:	83c1                	srli	a5,a5,0x10
     dc8:	0ff7f713          	andi	a4,a5,255
     dcc:	82e18823          	sb	a4,-2000(gp) # 200000d8 <USBHS_HidProtocol>
     dd0:	ada9                	j	142a <USBHS_IRQHandler+0xa7e>
     dd2:	8241d783          	lhu	a5,-2012(gp) # 200000cc <USBHS_SetupReqIndex>
     dd6:	01079713          	slli	a4,a5,0x10
     dda:	8341                	srli	a4,a4,0x10
     ddc:	4785                	li	a5,1
     dde:	00f71c63          	bne	a4,a5,df6 <USBHS_IRQHandler+0x44a>
     de2:	8221d783          	lhu	a5,-2014(gp) # 200000ca <USBHS_SetupReqValue>
     de6:	07c2                	slli	a5,a5,0x10
     de8:	83c1                	srli	a5,a5,0x10
     dea:	0ff7f713          	andi	a4,a5,255
     dee:	83018793          	addi	a5,gp,-2000 # 200000d8 <USBHS_HidProtocol>
     df2:	b398                	sb	a4,1(a5)
     df4:	ad1d                	j	142a <USBHS_IRQHandler+0xa7e>
     df6:	57fd                	li	a5,-1
     df8:	fef407a3          	sb	a5,-17(s0)
     dfc:	a53d                	j	142a <USBHS_IRQHandler+0xa7e>
     dfe:	8241d783          	lhu	a5,-2012(gp) # 200000cc <USBHS_SetupReqIndex>
     e02:	07c2                	slli	a5,a5,0x10
     e04:	83c1                	srli	a5,a5,0x10
     e06:	eb99                	bnez	a5,e1c <USBHS_IRQHandler+0x470>
     e08:	82c1c783          	lbu	a5,-2004(gp) # 200000d4 <USBHS_HidIdle>
     e0c:	0ff7f713          	andi	a4,a5,255
     e10:	84e18e23          	sb	a4,-1956(gp) # 20000104 <USBHS_EP0_Buf>
     e14:	4785                	li	a5,1
     e16:	fef41623          	sh	a5,-20(s0)
     e1a:	ad01                	j	142a <USBHS_IRQHandler+0xa7e>
     e1c:	8241d783          	lhu	a5,-2012(gp) # 200000cc <USBHS_SetupReqIndex>
     e20:	01079713          	slli	a4,a5,0x10
     e24:	8341                	srli	a4,a4,0x10
     e26:	4785                	li	a5,1
     e28:	00f71d63          	bne	a4,a5,e42 <USBHS_IRQHandler+0x496>
     e2c:	82c18793          	addi	a5,gp,-2004 # 200000d4 <USBHS_HidIdle>
     e30:	339c                	lbu	a5,1(a5)
     e32:	0ff7f713          	andi	a4,a5,255
     e36:	84e18e23          	sb	a4,-1956(gp) # 20000104 <USBHS_EP0_Buf>
     e3a:	4785                	li	a5,1
     e3c:	fef41623          	sh	a5,-20(s0)
     e40:	a3ed                	j	142a <USBHS_IRQHandler+0xa7e>
     e42:	57fd                	li	a5,-1
     e44:	fef407a3          	sb	a5,-17(s0)
     e48:	a3cd                	j	142a <USBHS_IRQHandler+0xa7e>
     e4a:	8241d783          	lhu	a5,-2012(gp) # 200000cc <USBHS_SetupReqIndex>
     e4e:	07c2                	slli	a5,a5,0x10
     e50:	83c1                	srli	a5,a5,0x10
     e52:	eb99                	bnez	a5,e68 <USBHS_IRQHandler+0x4bc>
     e54:	8301c783          	lbu	a5,-2000(gp) # 200000d8 <USBHS_HidProtocol>
     e58:	0ff7f713          	andi	a4,a5,255
     e5c:	84e18e23          	sb	a4,-1956(gp) # 20000104 <USBHS_EP0_Buf>
     e60:	4785                	li	a5,1
     e62:	fef41623          	sh	a5,-20(s0)
     e66:	a3d1                	j	142a <USBHS_IRQHandler+0xa7e>
     e68:	8241d783          	lhu	a5,-2012(gp) # 200000cc <USBHS_SetupReqIndex>
     e6c:	01079713          	slli	a4,a5,0x10
     e70:	8341                	srli	a4,a4,0x10
     e72:	4785                	li	a5,1
     e74:	00f71d63          	bne	a4,a5,e8e <USBHS_IRQHandler+0x4e2>
     e78:	83018793          	addi	a5,gp,-2000 # 200000d8 <USBHS_HidProtocol>
     e7c:	339c                	lbu	a5,1(a5)
     e7e:	0ff7f713          	andi	a4,a5,255
     e82:	84e18e23          	sb	a4,-1956(gp) # 20000104 <USBHS_EP0_Buf>
     e86:	4785                	li	a5,1
     e88:	fef41623          	sh	a5,-20(s0)
     e8c:	ab79                	j	142a <USBHS_IRQHandler+0xa7e>
     e8e:	57fd                	li	a5,-1
     e90:	fef407a3          	sb	a5,-17(s0)
     e94:	ab59                	j	142a <USBHS_IRQHandler+0xa7e>
     e96:	57fd                	li	a5,-1
     e98:	fef407a3          	sb	a5,-17(s0)
     e9c:	0001                	nop
     e9e:	a371                	j	142a <USBHS_IRQHandler+0xa7e>
     ea0:	8201c783          	lbu	a5,-2016(gp) # 200000c8 <USBHS_SetupReqCode>
     ea4:	0ff7f793          	andi	a5,a5,255
     ea8:	472d                	li	a4,11
     eaa:	54f76d63          	bltu	a4,a5,1404 <USBHS_IRQHandler+0xa58>
     eae:	00279713          	slli	a4,a5,0x2
     eb2:	6795                	lui	a5,0x5
     eb4:	01478793          	addi	a5,a5,20 # 5014 <_read+0xb0>
     eb8:	97ba                	add	a5,a5,a4
     eba:	439c                	lw	a5,0(a5)
     ebc:	8782                	jr	a5
     ebe:	8221d783          	lhu	a5,-2014(gp) # 200000ca <USBHS_SetupReqValue>
     ec2:	07c2                	slli	a5,a5,0x10
     ec4:	83c1                	srli	a5,a5,0x10
     ec6:	83a1                	srli	a5,a5,0x8
     ec8:	07c2                	slli	a5,a5,0x10
     eca:	83c1                	srli	a5,a5,0x10
     ecc:	0ff7f793          	andi	a5,a5,255
     ed0:	02200713          	li	a4,34
     ed4:	18f76563          	bltu	a4,a5,105e <USBHS_IRQHandler+0x6b2>
     ed8:	00279713          	slli	a4,a5,0x2
     edc:	6795                	lui	a5,0x5
     ede:	04478793          	addi	a5,a5,68 # 5044 <_read+0xe0>
     ee2:	97ba                	add	a5,a5,a4
     ee4:	439c                	lw	a5,0(a5)
     ee6:	8782                	jr	a5
     ee8:	6715                	lui	a4,0x5
     eea:	0d070713          	addi	a4,a4,208 # 50d0 <MyDevDescr>
     eee:	80e1ae23          	sw	a4,-2020(gp) # 200000c4 <pUSBHS_Descr>
     ef2:	6795                	lui	a5,0x5
     ef4:	0d07c783          	lbu	a5,208(a5) # 50d0 <MyDevDescr>
     ef8:	fef41623          	sh	a5,-20(s0)
     efc:	a2ad                	j	1066 <USBHS_IRQHandler+0x6ba>
     efe:	6715                	lui	a4,0x5
     f00:	0e470713          	addi	a4,a4,228 # 50e4 <MyCfgDescr>
     f04:	80e1ae23          	sw	a4,-2020(gp) # 200000c4 <pUSBHS_Descr>
     f08:	6795                	lui	a5,0x5
     f0a:	0e478793          	addi	a5,a5,228 # 50e4 <MyCfgDescr>
     f0e:	23bc                	lbu	a5,2(a5)
     f10:	01079713          	slli	a4,a5,0x10
     f14:	8341                	srli	a4,a4,0x10
     f16:	6795                	lui	a5,0x5
     f18:	0e478793          	addi	a5,a5,228 # 50e4 <MyCfgDescr>
     f1c:	33bc                	lbu	a5,3(a5)
     f1e:	07c2                	slli	a5,a5,0x10
     f20:	83c1                	srli	a5,a5,0x10
     f22:	07a2                	slli	a5,a5,0x8
     f24:	07c2                	slli	a5,a5,0x10
     f26:	83c1                	srli	a5,a5,0x10
     f28:	97ba                	add	a5,a5,a4
     f2a:	fef41623          	sh	a5,-20(s0)
     f2e:	aa25                	j	1066 <USBHS_IRQHandler+0x6ba>
     f30:	8241d783          	lhu	a5,-2012(gp) # 200000cc <USBHS_SetupReqIndex>
     f34:	07c2                	slli	a5,a5,0x10
     f36:	83c1                	srli	a5,a5,0x10
     f38:	eb91                	bnez	a5,f4c <USBHS_IRQHandler+0x5a0>
     f3a:	6715                	lui	a4,0x5
     f3c:	0f670713          	addi	a4,a4,246 # 50f6 <MyCfgDescr+0x12>
     f40:	80e1ae23          	sw	a4,-2020(gp) # 200000c4 <pUSBHS_Descr>
     f44:	47a5                	li	a5,9
     f46:	fef41623          	sh	a5,-20(s0)
     f4a:	aa31                	j	1066 <USBHS_IRQHandler+0x6ba>
     f4c:	8241d783          	lhu	a5,-2012(gp) # 200000cc <USBHS_SetupReqIndex>
     f50:	01079713          	slli	a4,a5,0x10
     f54:	8341                	srli	a4,a4,0x10
     f56:	4785                	li	a5,1
     f58:	00f71b63          	bne	a4,a5,f6e <USBHS_IRQHandler+0x5c2>
     f5c:	6715                	lui	a4,0x5
     f5e:	10f70713          	addi	a4,a4,271 # 510f <MyCfgDescr+0x2b>
     f62:	80e1ae23          	sw	a4,-2020(gp) # 200000c4 <pUSBHS_Descr>
     f66:	47a5                	li	a5,9
     f68:	fef41623          	sh	a5,-20(s0)
     f6c:	a8ed                	j	1066 <USBHS_IRQHandler+0x6ba>
     f6e:	57fd                	li	a5,-1
     f70:	fef407a3          	sb	a5,-17(s0)
     f74:	a8cd                	j	1066 <USBHS_IRQHandler+0x6ba>
     f76:	8241d783          	lhu	a5,-2012(gp) # 200000cc <USBHS_SetupReqIndex>
     f7a:	07c2                	slli	a5,a5,0x10
     f7c:	83c1                	srli	a5,a5,0x10
     f7e:	eb99                	bnez	a5,f94 <USBHS_IRQHandler+0x5e8>
     f80:	6715                	lui	a4,0x5
     f82:	12070713          	addi	a4,a4,288 # 5120 <KeyRepDesc>
     f86:	80e1ae23          	sw	a4,-2020(gp) # 200000c4 <pUSBHS_Descr>
     f8a:	03e00793          	li	a5,62
     f8e:	fef41623          	sh	a5,-20(s0)
     f92:	a8d1                	j	1066 <USBHS_IRQHandler+0x6ba>
     f94:	8241d783          	lhu	a5,-2012(gp) # 200000cc <USBHS_SetupReqIndex>
     f98:	01079713          	slli	a4,a5,0x10
     f9c:	8341                	srli	a4,a4,0x10
     f9e:	4785                	li	a5,1
     fa0:	00f71c63          	bne	a4,a5,fb8 <USBHS_IRQHandler+0x60c>
     fa4:	6715                	lui	a4,0x5
     fa6:	16070713          	addi	a4,a4,352 # 5160 <MouseRepDesc>
     faa:	80e1ae23          	sw	a4,-2020(gp) # 200000c4 <pUSBHS_Descr>
     fae:	03400793          	li	a5,52
     fb2:	fef41623          	sh	a5,-20(s0)
     fb6:	a845                	j	1066 <USBHS_IRQHandler+0x6ba>
     fb8:	57fd                	li	a5,-1
     fba:	fef407a3          	sb	a5,-17(s0)
     fbe:	a065                	j	1066 <USBHS_IRQHandler+0x6ba>
     fc0:	8221d783          	lhu	a5,-2014(gp) # 200000ca <USBHS_SetupReqValue>
     fc4:	07c2                	slli	a5,a5,0x10
     fc6:	83c1                	srli	a5,a5,0x10
     fc8:	0ff7f793          	andi	a5,a5,255
     fcc:	4705                	li	a4,1
     fce:	02e78763          	beq	a5,a4,ffc <USBHS_IRQHandler+0x650>
     fd2:	4705                	li	a4,1
     fd4:	00f74463          	blt	a4,a5,fdc <USBHS_IRQHandler+0x630>
     fd8:	cb89                	beqz	a5,fea <USBHS_IRQHandler+0x63e>
     fda:	a095                	j	103e <USBHS_IRQHandler+0x692>
     fdc:	4709                	li	a4,2
     fde:	02e78a63          	beq	a5,a4,1012 <USBHS_IRQHandler+0x666>
     fe2:	470d                	li	a4,3
     fe4:	04e78263          	beq	a5,a4,1028 <USBHS_IRQHandler+0x67c>
     fe8:	a899                	j	103e <USBHS_IRQHandler+0x692>
     fea:	81018713          	addi	a4,gp,-2032 # 200000b8 <MyLangDescr>
     fee:	80e1ae23          	sw	a4,-2020(gp) # 200000c4 <pUSBHS_Descr>
     ff2:	8101c783          	lbu	a5,-2032(gp) # 200000b8 <MyLangDescr>
     ff6:	fef41623          	sh	a5,-20(s0)
     ffa:	a0b1                	j	1046 <USBHS_IRQHandler+0x69a>
     ffc:	6715                	lui	a4,0x5
     ffe:	1a070713          	addi	a4,a4,416 # 51a0 <MyManuInfo>
    1002:	80e1ae23          	sw	a4,-2020(gp) # 200000c4 <pUSBHS_Descr>
    1006:	6795                	lui	a5,0x5
    1008:	1a07c783          	lbu	a5,416(a5) # 51a0 <MyManuInfo>
    100c:	fef41623          	sh	a5,-20(s0)
    1010:	a81d                	j	1046 <USBHS_IRQHandler+0x69a>
    1012:	6715                	lui	a4,0x5
    1014:	1b070713          	addi	a4,a4,432 # 51b0 <MyProdInfo>
    1018:	80e1ae23          	sw	a4,-2020(gp) # 200000c4 <pUSBHS_Descr>
    101c:	6795                	lui	a5,0x5
    101e:	1b07c783          	lbu	a5,432(a5) # 51b0 <MyProdInfo>
    1022:	fef41623          	sh	a5,-20(s0)
    1026:	a005                	j	1046 <USBHS_IRQHandler+0x69a>
    1028:	6715                	lui	a4,0x5
    102a:	1c470713          	addi	a4,a4,452 # 51c4 <MySerNumInfo>
    102e:	80e1ae23          	sw	a4,-2020(gp) # 200000c4 <pUSBHS_Descr>
    1032:	6795                	lui	a5,0x5
    1034:	1c47c783          	lbu	a5,452(a5) # 51c4 <MySerNumInfo>
    1038:	fef41623          	sh	a5,-20(s0)
    103c:	a029                	j	1046 <USBHS_IRQHandler+0x69a>
    103e:	57fd                	li	a5,-1
    1040:	fef407a3          	sb	a5,-17(s0)
    1044:	0001                	nop
    1046:	a005                	j	1066 <USBHS_IRQHandler+0x6ba>
    1048:	6715                	lui	a4,0x5
    104a:	19470713          	addi	a4,a4,404 # 5194 <MyQuaDesc>
    104e:	80e1ae23          	sw	a4,-2020(gp) # 200000c4 <pUSBHS_Descr>
    1052:	6795                	lui	a5,0x5
    1054:	1947c783          	lbu	a5,404(a5) # 5194 <MyQuaDesc>
    1058:	fef41623          	sh	a5,-20(s0)
    105c:	a029                	j	1066 <USBHS_IRQHandler+0x6ba>
    105e:	57fd                	li	a5,-1
    1060:	fef407a3          	sb	a5,-17(s0)
    1064:	0001                	nop
    1066:	8261d783          	lhu	a5,-2010(gp) # 200000ce <USBHS_SetupReqLen>
    106a:	07c2                	slli	a5,a5,0x10
    106c:	83c1                	srli	a5,a5,0x10
    106e:	fec45703          	lhu	a4,-20(s0)
    1072:	00f77663          	bgeu	a4,a5,107e <USBHS_IRQHandler+0x6d2>
    1076:	fec45703          	lhu	a4,-20(s0)
    107a:	82e19323          	sh	a4,-2010(gp) # 200000ce <USBHS_SetupReqLen>
    107e:	8261d783          	lhu	a5,-2010(gp) # 200000ce <USBHS_SetupReqLen>
    1082:	01079713          	slli	a4,a5,0x10
    1086:	8341                	srli	a4,a4,0x10
    1088:	03f00793          	li	a5,63
    108c:	00e7e763          	bltu	a5,a4,109a <USBHS_IRQHandler+0x6ee>
    1090:	8261d783          	lhu	a5,-2010(gp) # 200000ce <USBHS_SetupReqLen>
    1094:	07c2                	slli	a5,a5,0x10
    1096:	83c1                	srli	a5,a5,0x10
    1098:	a019                	j	109e <USBHS_IRQHandler+0x6f2>
    109a:	04000793          	li	a5,64
    109e:	fef41623          	sh	a5,-20(s0)
    10a2:	81c1a783          	lw	a5,-2020(gp) # 200000c4 <pUSBHS_Descr>
    10a6:	fec45703          	lhu	a4,-20(s0)
    10aa:	863a                	mv	a2,a4
    10ac:	85be                	mv	a1,a5
    10ae:	85c18513          	addi	a0,gp,-1956 # 20000104 <USBHS_EP0_Buf>
    10b2:	455020ef          	jal	ra,3d06 <memcpy>
    10b6:	81c1a703          	lw	a4,-2020(gp) # 200000c4 <pUSBHS_Descr>
    10ba:	fec45783          	lhu	a5,-20(s0)
    10be:	973e                	add	a4,a4,a5
    10c0:	80e1ae23          	sw	a4,-2020(gp) # 200000c4 <pUSBHS_Descr>
    10c4:	a69d                	j	142a <USBHS_IRQHandler+0xa7e>
    10c6:	8221d783          	lhu	a5,-2014(gp) # 200000ca <USBHS_SetupReqValue>
    10ca:	07c2                	slli	a5,a5,0x10
    10cc:	83c1                	srli	a5,a5,0x10
    10ce:	0ff7f713          	andi	a4,a5,255
    10d2:	82e184a3          	sb	a4,-2007(gp) # 200000d1 <USBHS_DevAddr>
    10d6:	ae91                	j	142a <USBHS_IRQHandler+0xa7e>
    10d8:	8281c783          	lbu	a5,-2008(gp) # 200000d0 <USBHS_DevConfig>
    10dc:	0ff7f713          	andi	a4,a5,255
    10e0:	84e18e23          	sb	a4,-1956(gp) # 20000104 <USBHS_EP0_Buf>
    10e4:	8261d783          	lhu	a5,-2010(gp) # 200000ce <USBHS_SetupReqLen>
    10e8:	01079713          	slli	a4,a5,0x10
    10ec:	8341                	srli	a4,a4,0x10
    10ee:	4785                	li	a5,1
    10f0:	32e7f463          	bgeu	a5,a4,1418 <USBHS_IRQHandler+0xa6c>
    10f4:	4705                	li	a4,1
    10f6:	82e19323          	sh	a4,-2010(gp) # 200000ce <USBHS_SetupReqLen>
    10fa:	ae39                	j	1418 <USBHS_IRQHandler+0xa6c>
    10fc:	8221d783          	lhu	a5,-2014(gp) # 200000ca <USBHS_SetupReqValue>
    1100:	07c2                	slli	a5,a5,0x10
    1102:	83c1                	srli	a5,a5,0x10
    1104:	0ff7f713          	andi	a4,a5,255
    1108:	82e18423          	sb	a4,-2008(gp) # 200000d0 <USBHS_DevConfig>
    110c:	4705                	li	a4,1
    110e:	82e185a3          	sb	a4,-2005(gp) # 200000d3 <USBHS_DevEnumStatus>
    1112:	ae21                	j	142a <USBHS_IRQHandler+0xa7e>
    1114:	8211c783          	lbu	a5,-2015(gp) # 200000c9 <USBHS_SetupReqType>
    1118:	0ff7f793          	andi	a5,a5,255
    111c:	01f7f713          	andi	a4,a5,31
    1120:	4789                	li	a5,2
    1122:	04f71663          	bne	a4,a5,116e <USBHS_IRQHandler+0x7c2>
    1126:	8241d783          	lhu	a5,-2012(gp) # 200000cc <USBHS_SetupReqIndex>
    112a:	07c2                	slli	a5,a5,0x10
    112c:	83c1                	srli	a5,a5,0x10
    112e:	0ff7f793          	andi	a5,a5,255
    1132:	08100713          	li	a4,129
    1136:	00e78763          	beq	a5,a4,1144 <USBHS_IRQHandler+0x798>
    113a:	08200713          	li	a4,130
    113e:	00e78b63          	beq	a5,a4,1154 <USBHS_IRQHandler+0x7a8>
    1142:	a00d                	j	1164 <USBHS_IRQHandler+0x7b8>
    1144:	400237b7          	lui	a5,0x40023
    1148:	40078793          	addi	a5,a5,1024 # 40023400 <_eusrstack+0x2001b400>
    114c:	4709                	li	a4,2
    114e:	0ce78f23          	sb	a4,222(a5)
    1152:	a899                	j	11a8 <USBHS_IRQHandler+0x7fc>
    1154:	400237b7          	lui	a5,0x40023
    1158:	40078793          	addi	a5,a5,1024 # 40023400 <_eusrstack+0x2001b400>
    115c:	4709                	li	a4,2
    115e:	0ee78123          	sb	a4,226(a5)
    1162:	a099                	j	11a8 <USBHS_IRQHandler+0x7fc>
    1164:	57fd                	li	a5,-1
    1166:	fef407a3          	sb	a5,-17(s0)
    116a:	0001                	nop
    116c:	a835                	j	11a8 <USBHS_IRQHandler+0x7fc>
    116e:	8211c783          	lbu	a5,-2015(gp) # 200000c9 <USBHS_SetupReqType>
    1172:	0ff7f793          	andi	a5,a5,255
    1176:	8bfd                	andi	a5,a5,31
    1178:	e785                	bnez	a5,11a0 <USBHS_IRQHandler+0x7f4>
    117a:	8221d783          	lhu	a5,-2014(gp) # 200000ca <USBHS_SetupReqValue>
    117e:	07c2                	slli	a5,a5,0x10
    1180:	83c1                	srli	a5,a5,0x10
    1182:	0ff7f713          	andi	a4,a5,255
    1186:	4785                	li	a5,1
    1188:	28f71a63          	bne	a4,a5,141c <USBHS_IRQHandler+0xa70>
    118c:	82a1c783          	lbu	a5,-2006(gp) # 200000d2 <USBHS_DevSleepStatus>
    1190:	0ff7f793          	andi	a5,a5,255
    1194:	9bf9                	andi	a5,a5,-2
    1196:	0ff7f713          	andi	a4,a5,255
    119a:	82e18523          	sb	a4,-2006(gp) # 200000d2 <USBHS_DevSleepStatus>
    119e:	acbd                	j	141c <USBHS_IRQHandler+0xa70>
    11a0:	57fd                	li	a5,-1
    11a2:	fef407a3          	sb	a5,-17(s0)
    11a6:	ac9d                	j	141c <USBHS_IRQHandler+0xa70>
    11a8:	ac95                	j	141c <USBHS_IRQHandler+0xa70>
    11aa:	8211c783          	lbu	a5,-2015(gp) # 200000c9 <USBHS_SetupReqType>
    11ae:	0ff7f793          	andi	a5,a5,255
    11b2:	8bfd                	andi	a5,a5,31
    11b4:	efc5                	bnez	a5,126c <USBHS_IRQHandler+0x8c0>
    11b6:	8221d783          	lhu	a5,-2014(gp) # 200000ca <USBHS_SetupReqValue>
    11ba:	07c2                	slli	a5,a5,0x10
    11bc:	83c1                	srli	a5,a5,0x10
    11be:	0ff7f713          	andi	a4,a5,255
    11c2:	4785                	li	a5,1
    11c4:	02f71863          	bne	a4,a5,11f4 <USBHS_IRQHandler+0x848>
    11c8:	6795                	lui	a5,0x5
    11ca:	0e478793          	addi	a5,a5,228 # 50e4 <MyCfgDescr>
    11ce:	33fc                	lbu	a5,7(a5)
    11d0:	0207f793          	andi	a5,a5,32
    11d4:	cf81                	beqz	a5,11ec <USBHS_IRQHandler+0x840>
    11d6:	82a1c783          	lbu	a5,-2006(gp) # 200000d2 <USBHS_DevSleepStatus>
    11da:	0ff7f793          	andi	a5,a5,255
    11de:	0017e793          	ori	a5,a5,1
    11e2:	0ff7f713          	andi	a4,a5,255
    11e6:	82e18523          	sb	a4,-2006(gp) # 200000d2 <USBHS_DevSleepStatus>
    11ea:	ac1d                	j	1420 <USBHS_IRQHandler+0xa74>
    11ec:	57fd                	li	a5,-1
    11ee:	fef407a3          	sb	a5,-17(s0)
    11f2:	a43d                	j	1420 <USBHS_IRQHandler+0xa74>
    11f4:	8221d783          	lhu	a5,-2014(gp) # 200000ca <USBHS_SetupReqValue>
    11f8:	07c2                	slli	a5,a5,0x10
    11fa:	83c1                	srli	a5,a5,0x10
    11fc:	0ff7f713          	andi	a4,a5,255
    1200:	4789                	li	a5,2
    1202:	06f71163          	bne	a4,a5,1264 <USBHS_IRQHandler+0x8b8>
    1206:	8241d783          	lhu	a5,-2012(gp) # 200000cc <USBHS_SetupReqIndex>
    120a:	01079713          	slli	a4,a5,0x10
    120e:	8341                	srli	a4,a4,0x10
    1210:	10000793          	li	a5,256
    1214:	02f70d63          	beq	a4,a5,124e <USBHS_IRQHandler+0x8a2>
    1218:	8241d783          	lhu	a5,-2012(gp) # 200000cc <USBHS_SetupReqIndex>
    121c:	01079713          	slli	a4,a5,0x10
    1220:	8341                	srli	a4,a4,0x10
    1222:	20000793          	li	a5,512
    1226:	02f70463          	beq	a4,a5,124e <USBHS_IRQHandler+0x8a2>
    122a:	8241d783          	lhu	a5,-2012(gp) # 200000cc <USBHS_SetupReqIndex>
    122e:	01079713          	slli	a4,a5,0x10
    1232:	8341                	srli	a4,a4,0x10
    1234:	30000793          	li	a5,768
    1238:	00f70b63          	beq	a4,a5,124e <USBHS_IRQHandler+0x8a2>
    123c:	8241d783          	lhu	a5,-2012(gp) # 200000cc <USBHS_SetupReqIndex>
    1240:	01079713          	slli	a4,a5,0x10
    1244:	8341                	srli	a4,a4,0x10
    1246:	40000793          	li	a5,1024
    124a:	1cf71b63          	bne	a4,a5,1420 <USBHS_IRQHandler+0xa74>
    124e:	8181c783          	lbu	a5,-2024(gp) # 200000c0 <_edata>
    1252:	0ff7f793          	andi	a5,a5,255
    1256:	f807e793          	ori	a5,a5,-128
    125a:	0ff7f713          	andi	a4,a5,255
    125e:	80e18c23          	sb	a4,-2024(gp) # 200000c0 <_edata>
    1262:	aa7d                	j	1420 <USBHS_IRQHandler+0xa74>
    1264:	57fd                	li	a5,-1
    1266:	fef407a3          	sb	a5,-17(s0)
    126a:	aa5d                	j	1420 <USBHS_IRQHandler+0xa74>
    126c:	8211c783          	lbu	a5,-2015(gp) # 200000c9 <USBHS_SetupReqType>
    1270:	0ff7f793          	andi	a5,a5,255
    1274:	01f7f713          	andi	a4,a5,31
    1278:	4789                	li	a5,2
    127a:	08f71763          	bne	a4,a5,1308 <USBHS_IRQHandler+0x95c>
    127e:	8221d783          	lhu	a5,-2014(gp) # 200000ca <USBHS_SetupReqValue>
    1282:	07c2                	slli	a5,a5,0x10
    1284:	83c1                	srli	a5,a5,0x10
    1286:	0ff7f793          	andi	a5,a5,255
    128a:	ebbd                	bnez	a5,1300 <USBHS_IRQHandler+0x954>
    128c:	8241d783          	lhu	a5,-2012(gp) # 200000cc <USBHS_SetupReqIndex>
    1290:	07c2                	slli	a5,a5,0x10
    1292:	83c1                	srli	a5,a5,0x10
    1294:	0ff7f793          	andi	a5,a5,255
    1298:	08100713          	li	a4,129
    129c:	00e78763          	beq	a5,a4,12aa <USBHS_IRQHandler+0x8fe>
    12a0:	08200713          	li	a4,130
    12a4:	02e78663          	beq	a5,a4,12d0 <USBHS_IRQHandler+0x924>
    12a8:	a0b9                	j	12f6 <USBHS_IRQHandler+0x94a>
    12aa:	400237b7          	lui	a5,0x40023
    12ae:	40078793          	addi	a5,a5,1024 # 40023400 <_eusrstack+0x2001b400>
    12b2:	0de7c783          	lbu	a5,222(a5)
    12b6:	0ff7f713          	andi	a4,a5,255
    12ba:	400237b7          	lui	a5,0x40023
    12be:	40078793          	addi	a5,a5,1024 # 40023400 <_eusrstack+0x2001b400>
    12c2:	00376713          	ori	a4,a4,3
    12c6:	0ff77713          	andi	a4,a4,255
    12ca:	0ce78f23          	sb	a4,222(a5)
    12ce:	a089                	j	1310 <USBHS_IRQHandler+0x964>
    12d0:	400237b7          	lui	a5,0x40023
    12d4:	40078793          	addi	a5,a5,1024 # 40023400 <_eusrstack+0x2001b400>
    12d8:	0e27c783          	lbu	a5,226(a5)
    12dc:	0ff7f713          	andi	a4,a5,255
    12e0:	400237b7          	lui	a5,0x40023
    12e4:	40078793          	addi	a5,a5,1024 # 40023400 <_eusrstack+0x2001b400>
    12e8:	00376713          	ori	a4,a4,3
    12ec:	0ff77713          	andi	a4,a4,255
    12f0:	0ee78123          	sb	a4,226(a5)
    12f4:	a831                	j	1310 <USBHS_IRQHandler+0x964>
    12f6:	57fd                	li	a5,-1
    12f8:	fef407a3          	sb	a5,-17(s0)
    12fc:	0001                	nop
    12fe:	a809                	j	1310 <USBHS_IRQHandler+0x964>
    1300:	57fd                	li	a5,-1
    1302:	fef407a3          	sb	a5,-17(s0)
    1306:	aa29                	j	1420 <USBHS_IRQHandler+0xa74>
    1308:	57fd                	li	a5,-1
    130a:	fef407a3          	sb	a5,-17(s0)
    130e:	aa09                	j	1420 <USBHS_IRQHandler+0xa74>
    1310:	aa01                	j	1420 <USBHS_IRQHandler+0xa74>
    1312:	84018e23          	sb	zero,-1956(gp) # 20000104 <USBHS_EP0_Buf>
    1316:	8261d783          	lhu	a5,-2010(gp) # 200000ce <USBHS_SetupReqLen>
    131a:	01079713          	slli	a4,a5,0x10
    131e:	8341                	srli	a4,a4,0x10
    1320:	4785                	li	a5,1
    1322:	10e7f163          	bgeu	a5,a4,1424 <USBHS_IRQHandler+0xa78>
    1326:	4705                	li	a4,1
    1328:	82e19323          	sh	a4,-2010(gp) # 200000ce <USBHS_SetupReqLen>
    132c:	a8e5                	j	1424 <USBHS_IRQHandler+0xa78>
    132e:	84018e23          	sb	zero,-1956(gp) # 20000104 <USBHS_EP0_Buf>
    1332:	85c18793          	addi	a5,gp,-1956 # 20000104 <USBHS_EP0_Buf>
    1336:	000780a3          	sb	zero,1(a5)
    133a:	8211c783          	lbu	a5,-2015(gp) # 200000c9 <USBHS_SetupReqType>
    133e:	0ff7f793          	andi	a5,a5,255
    1342:	8bfd                	andi	a5,a5,31
    1344:	ef91                	bnez	a5,1360 <USBHS_IRQHandler+0x9b4>
    1346:	82a1c783          	lbu	a5,-2006(gp) # 200000d2 <USBHS_DevSleepStatus>
    134a:	0ff7f793          	andi	a5,a5,255
    134e:	8b85                	andi	a5,a5,1
    1350:	c789                	beqz	a5,135a <USBHS_IRQHandler+0x9ae>
    1352:	4709                	li	a4,2
    1354:	84e18e23          	sb	a4,-1956(gp) # 20000104 <USBHS_EP0_Buf>
    1358:	a851                	j	13ec <USBHS_IRQHandler+0xa40>
    135a:	84018e23          	sb	zero,-1956(gp) # 20000104 <USBHS_EP0_Buf>
    135e:	a079                	j	13ec <USBHS_IRQHandler+0xa40>
    1360:	8211c783          	lbu	a5,-2015(gp) # 200000c9 <USBHS_SetupReqType>
    1364:	0ff7f793          	andi	a5,a5,255
    1368:	01f7f713          	andi	a4,a5,31
    136c:	4789                	li	a5,2
    136e:	06f71c63          	bne	a4,a5,13e6 <USBHS_IRQHandler+0xa3a>
    1372:	8241d783          	lhu	a5,-2012(gp) # 200000cc <USBHS_SetupReqIndex>
    1376:	07c2                	slli	a5,a5,0x10
    1378:	83c1                	srli	a5,a5,0x10
    137a:	0ff7f713          	andi	a4,a5,255
    137e:	08100793          	li	a5,129
    1382:	02f71363          	bne	a4,a5,13a8 <USBHS_IRQHandler+0x9fc>
    1386:	400237b7          	lui	a5,0x40023
    138a:	40078793          	addi	a5,a5,1024 # 40023400 <_eusrstack+0x2001b400>
    138e:	0de7c783          	lbu	a5,222(a5)
    1392:	0ff7f793          	andi	a5,a5,255
    1396:	0037f713          	andi	a4,a5,3
    139a:	478d                	li	a5,3
    139c:	04f71863          	bne	a4,a5,13ec <USBHS_IRQHandler+0xa40>
    13a0:	4705                	li	a4,1
    13a2:	84e18e23          	sb	a4,-1956(gp) # 20000104 <USBHS_EP0_Buf>
    13a6:	a099                	j	13ec <USBHS_IRQHandler+0xa40>
    13a8:	8241d783          	lhu	a5,-2012(gp) # 200000cc <USBHS_SetupReqIndex>
    13ac:	07c2                	slli	a5,a5,0x10
    13ae:	83c1                	srli	a5,a5,0x10
    13b0:	0ff7f713          	andi	a4,a5,255
    13b4:	08200793          	li	a5,130
    13b8:	02f71363          	bne	a4,a5,13de <USBHS_IRQHandler+0xa32>
    13bc:	400237b7          	lui	a5,0x40023
    13c0:	40078793          	addi	a5,a5,1024 # 40023400 <_eusrstack+0x2001b400>
    13c4:	0e27c783          	lbu	a5,226(a5)
    13c8:	0ff7f793          	andi	a5,a5,255
    13cc:	0037f713          	andi	a4,a5,3
    13d0:	478d                	li	a5,3
    13d2:	00f71d63          	bne	a4,a5,13ec <USBHS_IRQHandler+0xa40>
    13d6:	4705                	li	a4,1
    13d8:	84e18e23          	sb	a4,-1956(gp) # 20000104 <USBHS_EP0_Buf>
    13dc:	a801                	j	13ec <USBHS_IRQHandler+0xa40>
    13de:	57fd                	li	a5,-1
    13e0:	fef407a3          	sb	a5,-17(s0)
    13e4:	a021                	j	13ec <USBHS_IRQHandler+0xa40>
    13e6:	57fd                	li	a5,-1
    13e8:	fef407a3          	sb	a5,-17(s0)
    13ec:	8261d783          	lhu	a5,-2010(gp) # 200000ce <USBHS_SetupReqLen>
    13f0:	01079713          	slli	a4,a5,0x10
    13f4:	8341                	srli	a4,a4,0x10
    13f6:	4789                	li	a5,2
    13f8:	02e7f863          	bgeu	a5,a4,1428 <USBHS_IRQHandler+0xa7c>
    13fc:	4709                	li	a4,2
    13fe:	82e19323          	sh	a4,-2010(gp) # 200000ce <USBHS_SetupReqLen>
    1402:	a01d                	j	1428 <USBHS_IRQHandler+0xa7c>
    1404:	57fd                	li	a5,-1
    1406:	fef407a3          	sb	a5,-17(s0)
    140a:	a005                	j	142a <USBHS_IRQHandler+0xa7e>
    140c:	0001                	nop
    140e:	a831                	j	142a <USBHS_IRQHandler+0xa7e>
    1410:	0001                	nop
    1412:	a821                	j	142a <USBHS_IRQHandler+0xa7e>
    1414:	0001                	nop
    1416:	a811                	j	142a <USBHS_IRQHandler+0xa7e>
    1418:	0001                	nop
    141a:	a801                	j	142a <USBHS_IRQHandler+0xa7e>
    141c:	0001                	nop
    141e:	a031                	j	142a <USBHS_IRQHandler+0xa7e>
    1420:	0001                	nop
    1422:	a021                	j	142a <USBHS_IRQHandler+0xa7e>
    1424:	0001                	nop
    1426:	a011                	j	142a <USBHS_IRQHandler+0xa7e>
    1428:	0001                	nop
    142a:	fef44703          	lbu	a4,-17(s0)
    142e:	0ff00793          	li	a5,255
    1432:	02f71163          	bne	a4,a5,1454 <USBHS_IRQHandler+0xaa8>
    1436:	400237b7          	lui	a5,0x40023
    143a:	40078793          	addi	a5,a5,1024 # 40023400 <_eusrstack+0x2001b400>
    143e:	472d                	li	a4,11
    1440:	0ce78d23          	sb	a4,218(a5)
    1444:	400237b7          	lui	a5,0x40023
    1448:	40078793          	addi	a5,a5,1024 # 40023400 <_eusrstack+0x2001b400>
    144c:	472d                	li	a4,11
    144e:	0ce78da3          	sb	a4,219(a5)
    1452:	a05d                	j	14f8 <USBHS_IRQHandler+0xb4c>
    1454:	8211c783          	lbu	a5,-2015(gp) # 200000c9 <USBHS_SetupReqType>
    1458:	0ff7f793          	andi	a5,a5,255
    145c:	07e2                	slli	a5,a5,0x18
    145e:	87e1                	srai	a5,a5,0x18
    1460:	0607d263          	bgez	a5,14c4 <USBHS_IRQHandler+0xb18>
    1464:	8261d783          	lhu	a5,-2010(gp) # 200000ce <USBHS_SetupReqLen>
    1468:	01079713          	slli	a4,a5,0x10
    146c:	8341                	srli	a4,a4,0x10
    146e:	04000793          	li	a5,64
    1472:	00e7e763          	bltu	a5,a4,1480 <USBHS_IRQHandler+0xad4>
    1476:	8261d783          	lhu	a5,-2010(gp) # 200000ce <USBHS_SetupReqLen>
    147a:	07c2                	slli	a5,a5,0x10
    147c:	83c1                	srli	a5,a5,0x10
    147e:	a019                	j	1484 <USBHS_IRQHandler+0xad8>
    1480:	04000793          	li	a5,64
    1484:	fef41623          	sh	a5,-20(s0)
    1488:	8261d783          	lhu	a5,-2010(gp) # 200000ce <USBHS_SetupReqLen>
    148c:	01079713          	slli	a4,a5,0x10
    1490:	8341                	srli	a4,a4,0x10
    1492:	fec45783          	lhu	a5,-20(s0)
    1496:	40f707b3          	sub	a5,a4,a5
    149a:	01079713          	slli	a4,a5,0x10
    149e:	8341                	srli	a4,a4,0x10
    14a0:	82e19323          	sh	a4,-2010(gp) # 200000ce <USBHS_SetupReqLen>
    14a4:	400237b7          	lui	a5,0x40023
    14a8:	40078793          	addi	a5,a5,1024 # 40023400 <_eusrstack+0x2001b400>
    14ac:	fec45703          	lhu	a4,-20(s0)
    14b0:	0ce79c23          	sh	a4,216(a5)
    14b4:	400237b7          	lui	a5,0x40023
    14b8:	40078793          	addi	a5,a5,1024 # 40023400 <_eusrstack+0x2001b400>
    14bc:	4721                	li	a4,8
    14be:	0ce78d23          	sb	a4,218(a5)
    14c2:	a81d                	j	14f8 <USBHS_IRQHandler+0xb4c>
    14c4:	8261d783          	lhu	a5,-2010(gp) # 200000ce <USBHS_SetupReqLen>
    14c8:	07c2                	slli	a5,a5,0x10
    14ca:	83c1                	srli	a5,a5,0x10
    14cc:	ef99                	bnez	a5,14ea <USBHS_IRQHandler+0xb3e>
    14ce:	400237b7          	lui	a5,0x40023
    14d2:	40078793          	addi	a5,a5,1024 # 40023400 <_eusrstack+0x2001b400>
    14d6:	0c079c23          	sh	zero,216(a5)
    14da:	400237b7          	lui	a5,0x40023
    14de:	40078793          	addi	a5,a5,1024 # 40023400 <_eusrstack+0x2001b400>
    14e2:	4721                	li	a4,8
    14e4:	0ce78d23          	sb	a4,218(a5)
    14e8:	a801                	j	14f8 <USBHS_IRQHandler+0xb4c>
    14ea:	400237b7          	lui	a5,0x40023
    14ee:	40078793          	addi	a5,a5,1024 # 40023400 <_eusrstack+0x2001b400>
    14f2:	4721                	li	a4,8
    14f4:	0ce78da3          	sb	a4,219(a5)
    14f8:	400237b7          	lui	a5,0x40023
    14fc:	40078793          	addi	a5,a5,1024 # 40023400 <_eusrstack+0x2001b400>
    1500:	02000713          	li	a4,32
    1504:	a7b8                	sb	a4,10(a5)
    1506:	a07d                	j	15b4 <USBHS_IRQHandler+0xc08>
    1508:	feb44783          	lbu	a5,-21(s0)
    150c:	8b85                	andi	a5,a5,1
    150e:	cb85                	beqz	a5,153e <USBHS_IRQHandler+0xb92>
    1510:	82018423          	sb	zero,-2008(gp) # 200000d0 <USBHS_DevConfig>
    1514:	820184a3          	sb	zero,-2007(gp) # 200000d1 <USBHS_DevAddr>
    1518:	82018523          	sb	zero,-2006(gp) # 200000d2 <USBHS_DevSleepStatus>
    151c:	820185a3          	sb	zero,-2005(gp) # 200000d3 <USBHS_DevEnumStatus>
    1520:	400237b7          	lui	a5,0x40023
    1524:	40078793          	addi	a5,a5,1024 # 40023400 <_eusrstack+0x2001b400>
    1528:	000781a3          	sb	zero,3(a5)
    152c:	864ff0ef          	jal	ra,590 <USBHS_Device_Endp_Init>
    1530:	400237b7          	lui	a5,0x40023
    1534:	40078793          	addi	a5,a5,1024 # 40023400 <_eusrstack+0x2001b400>
    1538:	4705                	li	a4,1
    153a:	a7b8                	sb	a4,10(a5)
    153c:	a8a5                	j	15b4 <USBHS_IRQHandler+0xc08>
    153e:	feb44783          	lbu	a5,-21(s0)
    1542:	8b91                	andi	a5,a5,4
    1544:	c3ad                	beqz	a5,15a6 <USBHS_IRQHandler+0xbfa>
    1546:	400237b7          	lui	a5,0x40023
    154a:	40078793          	addi	a5,a5,1024 # 40023400 <_eusrstack+0x2001b400>
    154e:	4711                	li	a4,4
    1550:	a7b8                	sb	a4,10(a5)
    1552:	4529                	li	a0,10
    1554:	5da020ef          	jal	ra,3b2e <Delay_Us>
    1558:	400237b7          	lui	a5,0x40023
    155c:	40078793          	addi	a5,a5,1024 # 40023400 <_eusrstack+0x2001b400>
    1560:	379c                	lbu	a5,9(a5)
    1562:	0ff7f793          	andi	a5,a5,255
    1566:	8b91                	andi	a5,a5,4
    1568:	c78d                	beqz	a5,1592 <USBHS_IRQHandler+0xbe6>
    156a:	82a1c783          	lbu	a5,-2006(gp) # 200000d2 <USBHS_DevSleepStatus>
    156e:	0ff7f793          	andi	a5,a5,255
    1572:	0027e793          	ori	a5,a5,2
    1576:	0ff7f713          	andi	a4,a5,255
    157a:	82e18523          	sb	a4,-2006(gp) # 200000d2 <USBHS_DevSleepStatus>
    157e:	82a1c783          	lbu	a5,-2006(gp) # 200000d2 <USBHS_DevSleepStatus>
    1582:	0ff7f713          	andi	a4,a5,255
    1586:	478d                	li	a5,3
    1588:	02f71663          	bne	a4,a5,15b4 <USBHS_IRQHandler+0xc08>
    158c:	467000ef          	jal	ra,21f2 <MCU_Sleep_Wakeup_Operate>
    1590:	a015                	j	15b4 <USBHS_IRQHandler+0xc08>
    1592:	82a1c783          	lbu	a5,-2006(gp) # 200000d2 <USBHS_DevSleepStatus>
    1596:	0ff7f793          	andi	a5,a5,255
    159a:	9bf5                	andi	a5,a5,-3
    159c:	0ff7f713          	andi	a4,a5,255
    15a0:	82e18523          	sb	a4,-2006(gp) # 200000d2 <USBHS_DevSleepStatus>
    15a4:	a801                	j	15b4 <USBHS_IRQHandler+0xc08>
    15a6:	400237b7          	lui	a5,0x40023
    15aa:	40078793          	addi	a5,a5,1024 # 40023400 <_eusrstack+0x2001b400>
    15ae:	feb44703          	lbu	a4,-21(s0)
    15b2:	a7b8                	sb	a4,10(a5)
    15b4:	0001                	nop
    15b6:	4472                	lw	s0,28(sp)
    15b8:	6105                	addi	sp,sp,32
    15ba:	30200073          	mret

000015be <USBHS_Send_Resume>:
    15be:	1141                	addi	sp,sp,-16
    15c0:	c606                	sw	ra,12(sp)
    15c2:	c422                	sw	s0,8(sp)
    15c4:	0800                	addi	s0,sp,16
    15c6:	400237b7          	lui	a5,0x40023
    15ca:	40078793          	addi	a5,a5,1024 # 40023400 <_eusrstack+0x2001b400>
    15ce:	339c                	lbu	a5,1(a5)
    15d0:	0ff7f713          	andi	a4,a5,255
    15d4:	400237b7          	lui	a5,0x40023
    15d8:	40078793          	addi	a5,a5,1024 # 40023400 <_eusrstack+0x2001b400>
    15dc:	00876713          	ori	a4,a4,8
    15e0:	0ff77713          	andi	a4,a4,255
    15e4:	b398                	sb	a4,1(a5)
    15e6:	4521                	li	a0,8
    15e8:	5ca020ef          	jal	ra,3bb2 <Delay_Ms>
    15ec:	400237b7          	lui	a5,0x40023
    15f0:	40078793          	addi	a5,a5,1024 # 40023400 <_eusrstack+0x2001b400>
    15f4:	339c                	lbu	a5,1(a5)
    15f6:	0ff7f713          	andi	a4,a5,255
    15fa:	400237b7          	lui	a5,0x40023
    15fe:	40078793          	addi	a5,a5,1024 # 40023400 <_eusrstack+0x2001b400>
    1602:	9b5d                	andi	a4,a4,-9
    1604:	0ff77713          	andi	a4,a4,255
    1608:	b398                	sb	a4,1(a5)
    160a:	4505                	li	a0,1
    160c:	5a6020ef          	jal	ra,3bb2 <Delay_Ms>
    1610:	0001                	nop
    1612:	40b2                	lw	ra,12(sp)
    1614:	4422                	lw	s0,8(sp)
    1616:	0141                	addi	sp,sp,16
    1618:	8082                	ret

0000161a <main>:
    161a:	1141                	addi	sp,sp,-16
    161c:	c606                	sw	ra,12(sp)
    161e:	c422                	sw	s0,8(sp)
    1620:	0800                	addi	s0,sp,16
    1622:	222d                	jal	174c <SystemCoreClockUpdate>
    1624:	4509                	li	a0,2
    1626:	4e3010ef          	jal	ra,3308 <NVIC_PriorityGroupConfig>
    162a:	4be020ef          	jal	ra,3ae8 <Delay_Init>
    162e:	200007b7          	lui	a5,0x20000
    1632:	0a87a783          	lw	a5,168(a5) # 200000a8 <SystemCoreClock>
    1636:	85be                	mv	a1,a5
    1638:	6795                	lui	a5,0x5
    163a:	f7078513          	addi	a0,a5,-144 # 4f70 <_read+0xc>
    163e:	77a020ef          	jal	ra,3db8 <iprintf>
    1642:	4ca010ef          	jal	ra,2b0c <DBGMCU_GetCHIPID>
    1646:	87aa                	mv	a5,a0
    1648:	85be                	mv	a1,a5
    164a:	6795                	lui	a5,0x5
    164c:	f8078513          	addi	a0,a5,-128 # 4f80 <_read+0x1c>
    1650:	768020ef          	jal	ra,3db8 <iprintf>
    1654:	6795                	lui	a5,0x5
    1656:	f9078513          	addi	a0,a5,-112 # 4f90 <_read+0x2c>
    165a:	073020ef          	jal	ra,3ecc <puts>
    165e:	21d9                	jal	1b24 <KB_Scan_Init>
    1660:	6795                	lui	a5,0x5
    1662:	fb078513          	addi	a0,a5,-80 # 4fb0 <_read+0x4c>
    1666:	067020ef          	jal	ra,3ecc <puts>
    166a:	200007b7          	lui	a5,0x20000
    166e:	0a87a703          	lw	a4,168(a5) # 200000a8 <SystemCoreClock>
    1672:	6789                	lui	a5,0x2
    1674:	71078793          	addi	a5,a5,1808 # 2710 <ADC_RegularChannelConfig+0x5a>
    1678:	02f757b3          	divu	a5,a4,a5
    167c:	07c2                	slli	a5,a5,0x10
    167e:	83c1                	srli	a5,a5,0x10
    1680:	17fd                	addi	a5,a5,-1
    1682:	07c2                	slli	a5,a5,0x10
    1684:	83c1                	srli	a5,a5,0x10
    1686:	85be                	mv	a1,a5
    1688:	4505                	li	a0,1
    168a:	2e65                	jal	1a42 <TIM3_Init>
    168c:	6795                	lui	a5,0x5
    168e:	fc478513          	addi	a0,a5,-60 # 4fc4 <_read+0x60>
    1692:	03b020ef          	jal	ra,3ecc <puts>
    1696:	ebffe0ef          	jal	ra,554 <USBHS_RCC_Init>
    169a:	4505                	li	a0,1
    169c:	fa5fe0ef          	jal	ra,640 <USBHS_Device_Init>
    16a0:	30d000ef          	jal	ra,21ac <USB_Sleep_Wakeup_CFG>
    16a4:	82b1c783          	lbu	a5,-2005(gp) # 200000d3 <USBHS_DevEnumStatus>
    16a8:	0ff7f793          	andi	a5,a5,255
    16ac:	dfe5                	beqz	a5,16a4 <main+0x8a>
    16ae:	04b000ef          	jal	ra,1ef8 <KB_Scan_Handle>
    16b2:	bfcd                	j	16a4 <main+0x8a>

000016b4 <SystemInit>:
    16b4:	1141                	addi	sp,sp,-16
    16b6:	c606                	sw	ra,12(sp)
    16b8:	c422                	sw	s0,8(sp)
    16ba:	0800                	addi	s0,sp,16
    16bc:	400217b7          	lui	a5,0x40021
    16c0:	4398                	lw	a4,0(a5)
    16c2:	400217b7          	lui	a5,0x40021
    16c6:	00176713          	ori	a4,a4,1
    16ca:	c398                	sw	a4,0(a5)
    16cc:	400217b7          	lui	a5,0x40021
    16d0:	43d4                	lw	a3,4(a5)
    16d2:	400217b7          	lui	a5,0x40021
    16d6:	f0ff0737          	lui	a4,0xf0ff0
    16da:	8f75                	and	a4,a4,a3
    16dc:	c3d8                	sw	a4,4(a5)
    16de:	400217b7          	lui	a5,0x40021
    16e2:	4394                	lw	a3,0(a5)
    16e4:	400217b7          	lui	a5,0x40021
    16e8:	fef70737          	lui	a4,0xfef70
    16ec:	177d                	addi	a4,a4,-1
    16ee:	8f75                	and	a4,a4,a3
    16f0:	c398                	sw	a4,0(a5)
    16f2:	400217b7          	lui	a5,0x40021
    16f6:	4394                	lw	a3,0(a5)
    16f8:	400217b7          	lui	a5,0x40021
    16fc:	fffc0737          	lui	a4,0xfffc0
    1700:	177d                	addi	a4,a4,-1
    1702:	8f75                	and	a4,a4,a3
    1704:	c398                	sw	a4,0(a5)
    1706:	400217b7          	lui	a5,0x40021
    170a:	43d4                	lw	a3,4(a5)
    170c:	400217b7          	lui	a5,0x40021
    1710:	ff010737          	lui	a4,0xff010
    1714:	177d                	addi	a4,a4,-1
    1716:	8f75                	and	a4,a4,a3
    1718:	c3d8                	sw	a4,4(a5)
    171a:	400217b7          	lui	a5,0x40021
    171e:	4394                	lw	a3,0(a5)
    1720:	400217b7          	lui	a5,0x40021
    1724:	ec000737          	lui	a4,0xec000
    1728:	177d                	addi	a4,a4,-1
    172a:	8f75                	and	a4,a4,a3
    172c:	c398                	sw	a4,0(a5)
    172e:	400217b7          	lui	a5,0x40021
    1732:	00ff0737          	lui	a4,0xff0
    1736:	c798                	sw	a4,8(a5)
    1738:	400217b7          	lui	a5,0x40021
    173c:	0207a623          	sw	zero,44(a5) # 4002102c <_eusrstack+0x2001902c>
    1740:	2ae9                	jal	191a <SetSysClock>
    1742:	0001                	nop
    1744:	40b2                	lw	ra,12(sp)
    1746:	4422                	lw	s0,8(sp)
    1748:	0141                	addi	sp,sp,16
    174a:	8082                	ret

0000174c <SystemCoreClockUpdate>:
    174c:	1101                	addi	sp,sp,-32
    174e:	ce22                	sw	s0,28(sp)
    1750:	1000                	addi	s0,sp,32
    1752:	fe042223          	sw	zero,-28(s0)
    1756:	fe042623          	sw	zero,-20(s0)
    175a:	fe042023          	sw	zero,-32(s0)
    175e:	fe042423          	sw	zero,-24(s0)
    1762:	400217b7          	lui	a5,0x40021
    1766:	43dc                	lw	a5,4(a5)
    1768:	8bb1                	andi	a5,a5,12
    176a:	fef42223          	sw	a5,-28(s0)
    176e:	fe442703          	lw	a4,-28(s0)
    1772:	4791                	li	a5,4
    1774:	02f70463          	beq	a4,a5,179c <SystemCoreClockUpdate+0x50>
    1778:	fe442703          	lw	a4,-28(s0)
    177c:	47a1                	li	a5,8
    177e:	02f70863          	beq	a4,a5,17ae <SystemCoreClockUpdate+0x62>
    1782:	fe442783          	lw	a5,-28(s0)
    1786:	14079063          	bnez	a5,18c6 <SystemCoreClockUpdate+0x17a>
    178a:	200007b7          	lui	a5,0x20000
    178e:	007a1737          	lui	a4,0x7a1
    1792:	20070713          	addi	a4,a4,512 # 7a1200 <_data_lma+0x79bf88>
    1796:	0ae7a423          	sw	a4,168(a5) # 200000a8 <SystemCoreClock>
    179a:	a281                	j	18da <SystemCoreClockUpdate+0x18e>
    179c:	200007b7          	lui	a5,0x20000
    17a0:	007a1737          	lui	a4,0x7a1
    17a4:	20070713          	addi	a4,a4,512 # 7a1200 <_data_lma+0x79bf88>
    17a8:	0ae7a423          	sw	a4,168(a5) # 200000a8 <SystemCoreClock>
    17ac:	a23d                	j	18da <SystemCoreClockUpdate+0x18e>
    17ae:	400217b7          	lui	a5,0x40021
    17b2:	43d8                	lw	a4,4(a5)
    17b4:	003c07b7          	lui	a5,0x3c0
    17b8:	8ff9                	and	a5,a5,a4
    17ba:	fef42623          	sw	a5,-20(s0)
    17be:	400217b7          	lui	a5,0x40021
    17c2:	43d8                	lw	a4,4(a5)
    17c4:	67c1                	lui	a5,0x10
    17c6:	8ff9                	and	a5,a5,a4
    17c8:	fef42023          	sw	a5,-32(s0)
    17cc:	fec42783          	lw	a5,-20(s0)
    17d0:	83c9                	srli	a5,a5,0x12
    17d2:	0789                	addi	a5,a5,2
    17d4:	fef42623          	sw	a5,-20(s0)
    17d8:	fec42703          	lw	a4,-20(s0)
    17dc:	4789                	li	a5,2
    17de:	00f71563          	bne	a4,a5,17e8 <SystemCoreClockUpdate+0x9c>
    17e2:	47c9                	li	a5,18
    17e4:	fef42623          	sw	a5,-20(s0)
    17e8:	fec42703          	lw	a4,-20(s0)
    17ec:	47bd                	li	a5,15
    17ee:	00f71863          	bne	a4,a5,17fe <SystemCoreClockUpdate+0xb2>
    17f2:	47b5                	li	a5,13
    17f4:	fef42623          	sw	a5,-20(s0)
    17f8:	4785                	li	a5,1
    17fa:	fef42423          	sw	a5,-24(s0)
    17fe:	fec42703          	lw	a4,-20(s0)
    1802:	47c1                	li	a5,16
    1804:	00f71563          	bne	a4,a5,180e <SystemCoreClockUpdate+0xc2>
    1808:	47bd                	li	a5,15
    180a:	fef42623          	sw	a5,-20(s0)
    180e:	fec42703          	lw	a4,-20(s0)
    1812:	47c5                	li	a5,17
    1814:	00f71563          	bne	a4,a5,181e <SystemCoreClockUpdate+0xd2>
    1818:	47c1                	li	a5,16
    181a:	fef42623          	sw	a5,-20(s0)
    181e:	fe042783          	lw	a5,-32(s0)
    1822:	e3b1                	bnez	a5,1866 <SystemCoreClockUpdate+0x11a>
    1824:	400247b7          	lui	a5,0x40024
    1828:	80078793          	addi	a5,a5,-2048 # 40023800 <_eusrstack+0x2001b800>
    182c:	439c                	lw	a5,0(a5)
    182e:	8bc1                	andi	a5,a5,16
    1830:	cf91                	beqz	a5,184c <SystemCoreClockUpdate+0x100>
    1832:	fec42703          	lw	a4,-20(s0)
    1836:	007a17b7          	lui	a5,0x7a1
    183a:	20078793          	addi	a5,a5,512 # 7a1200 <_data_lma+0x79bf88>
    183e:	02f70733          	mul	a4,a4,a5
    1842:	200007b7          	lui	a5,0x20000
    1846:	0ae7a423          	sw	a4,168(a5) # 200000a8 <SystemCoreClock>
    184a:	a8b1                	j	18a6 <SystemCoreClockUpdate+0x15a>
    184c:	fec42703          	lw	a4,-20(s0)
    1850:	003d17b7          	lui	a5,0x3d1
    1854:	90078793          	addi	a5,a5,-1792 # 3d0900 <_data_lma+0x3cb688>
    1858:	02f70733          	mul	a4,a4,a5
    185c:	200007b7          	lui	a5,0x20000
    1860:	0ae7a423          	sw	a4,168(a5) # 200000a8 <SystemCoreClock>
    1864:	a089                	j	18a6 <SystemCoreClockUpdate+0x15a>
    1866:	400217b7          	lui	a5,0x40021
    186a:	43d8                	lw	a4,4(a5)
    186c:	000207b7          	lui	a5,0x20
    1870:	8ff9                	and	a5,a5,a4
    1872:	cf91                	beqz	a5,188e <SystemCoreClockUpdate+0x142>
    1874:	fec42703          	lw	a4,-20(s0)
    1878:	003d17b7          	lui	a5,0x3d1
    187c:	90078793          	addi	a5,a5,-1792 # 3d0900 <_data_lma+0x3cb688>
    1880:	02f70733          	mul	a4,a4,a5
    1884:	200007b7          	lui	a5,0x20000
    1888:	0ae7a423          	sw	a4,168(a5) # 200000a8 <SystemCoreClock>
    188c:	a829                	j	18a6 <SystemCoreClockUpdate+0x15a>
    188e:	fec42703          	lw	a4,-20(s0)
    1892:	007a17b7          	lui	a5,0x7a1
    1896:	20078793          	addi	a5,a5,512 # 7a1200 <_data_lma+0x79bf88>
    189a:	02f70733          	mul	a4,a4,a5
    189e:	200007b7          	lui	a5,0x20000
    18a2:	0ae7a423          	sw	a4,168(a5) # 200000a8 <SystemCoreClock>
    18a6:	fe842703          	lw	a4,-24(s0)
    18aa:	4785                	li	a5,1
    18ac:	02f71663          	bne	a4,a5,18d8 <SystemCoreClockUpdate+0x18c>
    18b0:	200007b7          	lui	a5,0x20000
    18b4:	0a87a783          	lw	a5,168(a5) # 200000a8 <SystemCoreClock>
    18b8:	0017d713          	srli	a4,a5,0x1
    18bc:	200007b7          	lui	a5,0x20000
    18c0:	0ae7a423          	sw	a4,168(a5) # 200000a8 <SystemCoreClock>
    18c4:	a811                	j	18d8 <SystemCoreClockUpdate+0x18c>
    18c6:	200007b7          	lui	a5,0x20000
    18ca:	007a1737          	lui	a4,0x7a1
    18ce:	20070713          	addi	a4,a4,512 # 7a1200 <_data_lma+0x79bf88>
    18d2:	0ae7a423          	sw	a4,168(a5) # 200000a8 <SystemCoreClock>
    18d6:	a011                	j	18da <SystemCoreClockUpdate+0x18e>
    18d8:	0001                	nop
    18da:	400217b7          	lui	a5,0x40021
    18de:	43dc                	lw	a5,4(a5)
    18e0:	8391                	srli	a5,a5,0x4
    18e2:	00f7f713          	andi	a4,a5,15
    18e6:	200007b7          	lui	a5,0x20000
    18ea:	03878793          	addi	a5,a5,56 # 20000038 <AHBPrescTable>
    18ee:	97ba                	add	a5,a5,a4
    18f0:	239c                	lbu	a5,0(a5)
    18f2:	0ff7f793          	andi	a5,a5,255
    18f6:	fef42223          	sw	a5,-28(s0)
    18fa:	200007b7          	lui	a5,0x20000
    18fe:	0a87a703          	lw	a4,168(a5) # 200000a8 <SystemCoreClock>
    1902:	fe442783          	lw	a5,-28(s0)
    1906:	00f75733          	srl	a4,a4,a5
    190a:	200007b7          	lui	a5,0x20000
    190e:	0ae7a423          	sw	a4,168(a5) # 200000a8 <SystemCoreClock>
    1912:	0001                	nop
    1914:	4472                	lw	s0,28(sp)
    1916:	6105                	addi	sp,sp,32
    1918:	8082                	ret

0000191a <SetSysClock>:
    191a:	1141                	addi	sp,sp,-16
    191c:	c606                	sw	ra,12(sp)
    191e:	c422                	sw	s0,8(sp)
    1920:	0800                	addi	s0,sp,16
    1922:	2031                	jal	192e <SetSysClockTo96_HSE>
    1924:	0001                	nop
    1926:	40b2                	lw	ra,12(sp)
    1928:	4422                	lw	s0,8(sp)
    192a:	0141                	addi	sp,sp,16
    192c:	8082                	ret

0000192e <SetSysClockTo96_HSE>:
    192e:	1101                	addi	sp,sp,-32
    1930:	ce22                	sw	s0,28(sp)
    1932:	1000                	addi	s0,sp,32
    1934:	fe042623          	sw	zero,-20(s0)
    1938:	fe042423          	sw	zero,-24(s0)
    193c:	400217b7          	lui	a5,0x40021
    1940:	4394                	lw	a3,0(a5)
    1942:	400217b7          	lui	a5,0x40021
    1946:	6741                	lui	a4,0x10
    1948:	8f55                	or	a4,a4,a3
    194a:	c398                	sw	a4,0(a5)
    194c:	400217b7          	lui	a5,0x40021
    1950:	4398                	lw	a4,0(a5)
    1952:	000207b7          	lui	a5,0x20
    1956:	8ff9                	and	a5,a5,a4
    1958:	fef42423          	sw	a5,-24(s0)
    195c:	fec42783          	lw	a5,-20(s0)
    1960:	0785                	addi	a5,a5,1
    1962:	fef42623          	sw	a5,-20(s0)
    1966:	fe842783          	lw	a5,-24(s0)
    196a:	e791                	bnez	a5,1976 <SetSysClockTo96_HSE+0x48>
    196c:	fec42703          	lw	a4,-20(s0)
    1970:	6785                	lui	a5,0x1
    1972:	fcf71de3          	bne	a4,a5,194c <SetSysClockTo96_HSE+0x1e>
    1976:	400217b7          	lui	a5,0x40021
    197a:	4398                	lw	a4,0(a5)
    197c:	000207b7          	lui	a5,0x20
    1980:	8ff9                	and	a5,a5,a4
    1982:	c789                	beqz	a5,198c <SetSysClockTo96_HSE+0x5e>
    1984:	4785                	li	a5,1
    1986:	fef42423          	sw	a5,-24(s0)
    198a:	a019                	j	1990 <SetSysClockTo96_HSE+0x62>
    198c:	fe042423          	sw	zero,-24(s0)
    1990:	fe842703          	lw	a4,-24(s0)
    1994:	4785                	li	a5,1
    1996:	0af71263          	bne	a4,a5,1a3a <SetSysClockTo96_HSE+0x10c>
    199a:	40021737          	lui	a4,0x40021
    199e:	400217b7          	lui	a5,0x40021
    19a2:	4358                	lw	a4,4(a4)
    19a4:	c3d8                	sw	a4,4(a5)
    19a6:	40021737          	lui	a4,0x40021
    19aa:	400217b7          	lui	a5,0x40021
    19ae:	4358                	lw	a4,4(a4)
    19b0:	c3d8                	sw	a4,4(a5)
    19b2:	400217b7          	lui	a5,0x40021
    19b6:	43d8                	lw	a4,4(a5)
    19b8:	400217b7          	lui	a5,0x40021
    19bc:	40076713          	ori	a4,a4,1024
    19c0:	c3d8                	sw	a4,4(a5)
    19c2:	400217b7          	lui	a5,0x40021
    19c6:	43d4                	lw	a3,4(a5)
    19c8:	400217b7          	lui	a5,0x40021
    19cc:	ffc10737          	lui	a4,0xffc10
    19d0:	177d                	addi	a4,a4,-1
    19d2:	8f75                	and	a4,a4,a3
    19d4:	c3d8                	sw	a4,4(a5)
    19d6:	400217b7          	lui	a5,0x40021
    19da:	43d4                	lw	a3,4(a5)
    19dc:	400217b7          	lui	a5,0x40021
    19e0:	00290737          	lui	a4,0x290
    19e4:	8f55                	or	a4,a4,a3
    19e6:	c3d8                	sw	a4,4(a5)
    19e8:	400217b7          	lui	a5,0x40021
    19ec:	4394                	lw	a3,0(a5)
    19ee:	400217b7          	lui	a5,0x40021
    19f2:	01000737          	lui	a4,0x1000
    19f6:	8f55                	or	a4,a4,a3
    19f8:	c398                	sw	a4,0(a5)
    19fa:	0001                	nop
    19fc:	400217b7          	lui	a5,0x40021
    1a00:	4398                	lw	a4,0(a5)
    1a02:	020007b7          	lui	a5,0x2000
    1a06:	8ff9                	and	a5,a5,a4
    1a08:	dbf5                	beqz	a5,19fc <SetSysClockTo96_HSE+0xce>
    1a0a:	400217b7          	lui	a5,0x40021
    1a0e:	43d8                	lw	a4,4(a5)
    1a10:	400217b7          	lui	a5,0x40021
    1a14:	9b71                	andi	a4,a4,-4
    1a16:	c3d8                	sw	a4,4(a5)
    1a18:	400217b7          	lui	a5,0x40021
    1a1c:	43d8                	lw	a4,4(a5)
    1a1e:	400217b7          	lui	a5,0x40021
    1a22:	00276713          	ori	a4,a4,2
    1a26:	c3d8                	sw	a4,4(a5)
    1a28:	0001                	nop
    1a2a:	400217b7          	lui	a5,0x40021
    1a2e:	43dc                	lw	a5,4(a5)
    1a30:	00c7f713          	andi	a4,a5,12
    1a34:	47a1                	li	a5,8
    1a36:	fef71ae3          	bne	a4,a5,1a2a <SetSysClockTo96_HSE+0xfc>
    1a3a:	0001                	nop
    1a3c:	4472                	lw	s0,28(sp)
    1a3e:	6105                	addi	sp,sp,32
    1a40:	8082                	ret

00001a42 <TIM3_Init>:
    1a42:	7139                	addi	sp,sp,-64
    1a44:	de06                	sw	ra,60(sp)
    1a46:	dc22                	sw	s0,56(sp)
    1a48:	0080                	addi	s0,sp,64
    1a4a:	87aa                	mv	a5,a0
    1a4c:	872e                	mv	a4,a1
    1a4e:	fcf41723          	sh	a5,-50(s0)
    1a52:	87ba                	mv	a5,a4
    1a54:	fcf41623          	sh	a5,-52(s0)
    1a58:	4585                	li	a1,1
    1a5a:	4509                	li	a0,2
    1a5c:	3a7010ef          	jal	ra,3602 <RCC_APB1PeriphClockCmd>
    1a60:	fce45783          	lhu	a5,-50(s0)
    1a64:	fef41423          	sh	a5,-24(s0)
    1a68:	fcc45783          	lhu	a5,-52(s0)
    1a6c:	fef41223          	sh	a5,-28(s0)
    1a70:	fe041523          	sh	zero,-22(s0)
    1a74:	fe041323          	sh	zero,-26(s0)
    1a78:	fe440793          	addi	a5,s0,-28
    1a7c:	85be                	mv	a1,a5
    1a7e:	400007b7          	lui	a5,0x40000
    1a82:	40078513          	addi	a0,a5,1024 # 40000400 <_eusrstack+0x1fff8400>
    1a86:	53b010ef          	jal	ra,37c0 <TIM_TimeBaseInit>
    1a8a:	4605                	li	a2,1
    1a8c:	4585                	li	a1,1
    1a8e:	400007b7          	lui	a5,0x40000
    1a92:	40078513          	addi	a0,a5,1024 # 40000400 <_eusrstack+0x1fff8400>
    1a96:	6e3010ef          	jal	ra,3978 <TIM_ITConfig>
    1a9a:	02d00793          	li	a5,45
    1a9e:	fcf40e23          	sb	a5,-36(s0)
    1aa2:	4785                	li	a5,1
    1aa4:	fcf40ea3          	sb	a5,-35(s0)
    1aa8:	4789                	li	a5,2
    1aaa:	fcf40f23          	sb	a5,-34(s0)
    1aae:	4785                	li	a5,1
    1ab0:	fef42023          	sw	a5,-32(s0)
    1ab4:	fdc40793          	addi	a5,s0,-36
    1ab8:	853e                	mv	a0,a5
    1aba:	069010ef          	jal	ra,3322 <NVIC_Init>
    1abe:	4585                	li	a1,1
    1ac0:	400007b7          	lui	a5,0x40000
    1ac4:	40078513          	addi	a0,a5,1024 # 40000400 <_eusrstack+0x1fff8400>
    1ac8:	661010ef          	jal	ra,3928 <TIM_Cmd>
    1acc:	0001                	nop
    1ace:	50f2                	lw	ra,60(sp)
    1ad0:	5462                	lw	s0,56(sp)
    1ad2:	6121                	addi	sp,sp,64
    1ad4:	8082                	ret

00001ad6 <TIM3_IRQHandler>:
    1ad6:	1141                	addi	sp,sp,-16
    1ad8:	c622                	sw	s0,12(sp)
    1ada:	0800                	addi	s0,sp,16
    1adc:	4585                	li	a1,1
    1ade:	400007b7          	lui	a5,0x40000
    1ae2:	40078513          	addi	a0,a5,1024 # 40000400 <_eusrstack+0x1fff8400>
    1ae6:	6fb010ef          	jal	ra,39e0 <TIM_GetITStatus>
    1aea:	87aa                	mv	a5,a0
    1aec:	c79d                	beqz	a5,1b1a <TIM3_IRQHandler+0x44>
    1aee:	4585                	li	a1,1
    1af0:	400007b7          	lui	a5,0x40000
    1af4:	40078513          	addi	a0,a5,1024 # 40000400 <_eusrstack+0x1fff8400>
    1af8:	755010ef          	jal	ra,3a4c <TIM_ClearITPendingBit>
    1afc:	2e95                	jal	1e70 <KB_Scan>
    1afe:	8411c783          	lbu	a5,-1983(gp) # 200000e9 <USART_Send_Flag>
    1b02:	0ff7f793          	andi	a5,a5,255
    1b06:	cb91                	beqz	a5,1b1a <TIM3_IRQHandler+0x44>
    1b08:	8421c783          	lbu	a5,-1982(gp) # 200000ea <USART_Send_Cnt>
    1b0c:	0ff7f793          	andi	a5,a5,255
    1b10:	0785                	addi	a5,a5,1
    1b12:	0ff7f713          	andi	a4,a5,255
    1b16:	84e18123          	sb	a4,-1982(gp) # 200000ea <USART_Send_Cnt>
    1b1a:	0001                	nop
    1b1c:	4432                	lw	s0,12(sp)
    1b1e:	0141                	addi	sp,sp,16
    1b20:	30200073          	mret

00001b24 <KB_Scan_Init>:
    1b24:	7159                	addi	sp,sp,-112
    1b26:	d686                	sw	ra,108(sp)
    1b28:	d4a2                	sw	s0,104(sp)
    1b2a:	1880                	addi	s0,sp,112
    1b2c:	fc042823          	sw	zero,-48(s0)
    1b30:	fc042a23          	sw	zero,-44(s0)
    1b34:	fc042c23          	sw	zero,-40(s0)
    1b38:	fc042e23          	sw	zero,-36(s0)
    1b3c:	fe042023          	sw	zero,-32(s0)
    1b40:	fe042223          	sw	zero,-28(s0)
    1b44:	fe042423          	sw	zero,-24(s0)
    1b48:	fe042623          	sw	zero,-20(s0)
    1b4c:	fc042223          	sw	zero,-60(s0)
    1b50:	fc042423          	sw	zero,-56(s0)
    1b54:	fc042623          	sw	zero,-52(s0)
    1b58:	f8042c23          	sw	zero,-104(s0)
    1b5c:	f8042e23          	sw	zero,-100(s0)
    1b60:	fa042023          	sw	zero,-96(s0)
    1b64:	fa042223          	sw	zero,-92(s0)
    1b68:	fa042423          	sw	zero,-88(s0)
    1b6c:	fa042623          	sw	zero,-84(s0)
    1b70:	fa042823          	sw	zero,-80(s0)
    1b74:	fa042a23          	sw	zero,-76(s0)
    1b78:	fa042c23          	sw	zero,-72(s0)
    1b7c:	fa042e23          	sw	zero,-68(s0)
    1b80:	fc042023          	sw	zero,-64(s0)
    1b84:	4585                	li	a1,1
    1b86:	20400513          	li	a0,516
    1b8a:	233010ef          	jal	ra,35bc <RCC_APB2PeriphClockCmd>
    1b8e:	4585                	li	a1,1
    1b90:	4505                	li	a0,1
    1b92:	1e5010ef          	jal	ra,3576 <RCC_AHBPeriphClockCmd>
    1b96:	6531                	lui	a0,0xc
    1b98:	199010ef          	jal	ra,3530 <RCC_ADCCLKConfig>
    1b9c:	47fd                	li	a5,31
    1b9e:	fcf41223          	sh	a5,-60(s0)
    1ba2:	fc042623          	sw	zero,-52(s0)
    1ba6:	fc440793          	addi	a5,s0,-60
    1baa:	85be                	mv	a1,a5
    1bac:	400117b7          	lui	a5,0x40011
    1bb0:	80078513          	addi	a0,a5,-2048 # 40010800 <_eusrstack+0x20008800>
    1bb4:	532010ef          	jal	ra,30e6 <GPIO_Init>
    1bb8:	400207b7          	lui	a5,0x40020
    1bbc:	00878513          	addi	a0,a5,8 # 40020008 <_eusrstack+0x20018008>
    1bc0:	765000ef          	jal	ra,2b24 <DMA_DeInit>
    1bc4:	400127b7          	lui	a5,0x40012
    1bc8:	44c78793          	addi	a5,a5,1100 # 4001244c <_eusrstack+0x2000a44c>
    1bcc:	f8f42c23          	sw	a5,-104(s0)
    1bd0:	cac18793          	addi	a5,gp,-852 # 20000554 <ADC_Values>
    1bd4:	f8f42e23          	sw	a5,-100(s0)
    1bd8:	fa042023          	sw	zero,-96(s0)
    1bdc:	479d                	li	a5,7
    1bde:	faf42223          	sw	a5,-92(s0)
    1be2:	fa042423          	sw	zero,-88(s0)
    1be6:	08000793          	li	a5,128
    1bea:	faf42623          	sw	a5,-84(s0)
    1bee:	10000793          	li	a5,256
    1bf2:	faf42823          	sw	a5,-80(s0)
    1bf6:	40000793          	li	a5,1024
    1bfa:	faf42a23          	sw	a5,-76(s0)
    1bfe:	02000793          	li	a5,32
    1c02:	faf42c23          	sw	a5,-72(s0)
    1c06:	678d                	lui	a5,0x3
    1c08:	faf42e23          	sw	a5,-68(s0)
    1c0c:	fc042023          	sw	zero,-64(s0)
    1c10:	f9840793          	addi	a5,s0,-104
    1c14:	85be                	mv	a1,a5
    1c16:	400207b7          	lui	a5,0x40020
    1c1a:	00878513          	addi	a0,a5,8 # 40020008 <_eusrstack+0x20018008>
    1c1e:	218010ef          	jal	ra,2e36 <DMA_Init>
    1c22:	4585                	li	a1,1
    1c24:	400207b7          	lui	a5,0x40020
    1c28:	00878513          	addi	a0,a5,8 # 40020008 <_eusrstack+0x20018008>
    1c2c:	2b2010ef          	jal	ra,2ede <DMA_Cmd>
    1c30:	400127b7          	lui	a5,0x40012
    1c34:	40078513          	addi	a0,a5,1024 # 40012400 <_eusrstack+0x2000a400>
    1c38:	7ba000ef          	jal	ra,23f2 <ADC_DeInit>
    1c3c:	fc042823          	sw	zero,-48(s0)
    1c40:	4785                	li	a5,1
    1c42:	fcf42a23          	sw	a5,-44(s0)
    1c46:	4785                	li	a5,1
    1c48:	fcf42c23          	sw	a5,-40(s0)
    1c4c:	000e07b7          	lui	a5,0xe0
    1c50:	fcf42e23          	sw	a5,-36(s0)
    1c54:	fe042023          	sw	zero,-32(s0)
    1c58:	479d                	li	a5,7
    1c5a:	fef40223          	sb	a5,-28(s0)
    1c5e:	fd040793          	addi	a5,s0,-48
    1c62:	85be                	mv	a1,a5
    1c64:	400127b7          	lui	a5,0x40012
    1c68:	40078513          	addi	a0,a5,1024 # 40012400 <_eusrstack+0x2000a400>
    1c6c:	7e6000ef          	jal	ra,2452 <ADC_Init>
    1c70:	469d                	li	a3,7
    1c72:	4605                	li	a2,1
    1c74:	4581                	li	a1,0
    1c76:	400127b7          	lui	a5,0x40012
    1c7a:	40078513          	addi	a0,a5,1024 # 40012400 <_eusrstack+0x2000a400>
    1c7e:	239000ef          	jal	ra,26b6 <ADC_RegularChannelConfig>
    1c82:	469d                	li	a3,7
    1c84:	4609                	li	a2,2
    1c86:	4585                	li	a1,1
    1c88:	400127b7          	lui	a5,0x40012
    1c8c:	40078513          	addi	a0,a5,1024 # 40012400 <_eusrstack+0x2000a400>
    1c90:	227000ef          	jal	ra,26b6 <ADC_RegularChannelConfig>
    1c94:	469d                	li	a3,7
    1c96:	460d                	li	a2,3
    1c98:	4589                	li	a1,2
    1c9a:	400127b7          	lui	a5,0x40012
    1c9e:	40078513          	addi	a0,a5,1024 # 40012400 <_eusrstack+0x2000a400>
    1ca2:	215000ef          	jal	ra,26b6 <ADC_RegularChannelConfig>
    1ca6:	469d                	li	a3,7
    1ca8:	4611                	li	a2,4
    1caa:	458d                	li	a1,3
    1cac:	400127b7          	lui	a5,0x40012
    1cb0:	40078513          	addi	a0,a5,1024 # 40012400 <_eusrstack+0x2000a400>
    1cb4:	203000ef          	jal	ra,26b6 <ADC_RegularChannelConfig>
    1cb8:	469d                	li	a3,7
    1cba:	4615                	li	a2,5
    1cbc:	4591                	li	a1,4
    1cbe:	400127b7          	lui	a5,0x40012
    1cc2:	40078513          	addi	a0,a5,1024 # 40012400 <_eusrstack+0x2000a400>
    1cc6:	1f1000ef          	jal	ra,26b6 <ADC_RegularChannelConfig>
    1cca:	469d                	li	a3,7
    1ccc:	4619                	li	a2,6
    1cce:	4595                	li	a1,5
    1cd0:	400127b7          	lui	a5,0x40012
    1cd4:	40078513          	addi	a0,a5,1024 # 40012400 <_eusrstack+0x2000a400>
    1cd8:	1df000ef          	jal	ra,26b6 <ADC_RegularChannelConfig>
    1cdc:	469d                	li	a3,7
    1cde:	461d                	li	a2,7
    1ce0:	4599                	li	a1,6
    1ce2:	400127b7          	lui	a5,0x40012
    1ce6:	40078513          	addi	a0,a5,1024 # 40012400 <_eusrstack+0x2000a400>
    1cea:	1cd000ef          	jal	ra,26b6 <ADC_RegularChannelConfig>
    1cee:	4585                	li	a1,1
    1cf0:	400127b7          	lui	a5,0x40012
    1cf4:	40078513          	addi	a0,a5,1024 # 40012400 <_eusrstack+0x2000a400>
    1cf8:	099000ef          	jal	ra,2590 <ADC_DMACmd>
    1cfc:	4585                	li	a1,1
    1cfe:	400127b7          	lui	a5,0x40012
    1d02:	40078513          	addi	a0,a5,1024 # 40012400 <_eusrstack+0x2000a400>
    1d06:	04d000ef          	jal	ra,2552 <ADC_Cmd>
    1d0a:	400127b7          	lui	a5,0x40012
    1d0e:	40078513          	addi	a0,a5,1024 # 40012400 <_eusrstack+0x2000a400>
    1d12:	0bd000ef          	jal	ra,25ce <ADC_ResetCalibration>
    1d16:	0001                	nop
    1d18:	400127b7          	lui	a5,0x40012
    1d1c:	40078513          	addi	a0,a5,1024 # 40012400 <_eusrstack+0x2000a400>
    1d20:	0d1000ef          	jal	ra,25f0 <ADC_GetResetCalibrationStatus>
    1d24:	87aa                	mv	a5,a0
    1d26:	fbed                	bnez	a5,1d18 <KB_Scan_Init+0x1f4>
    1d28:	400127b7          	lui	a5,0x40012
    1d2c:	40078513          	addi	a0,a5,1024 # 40012400 <_eusrstack+0x2000a400>
    1d30:	0f1000ef          	jal	ra,2620 <ADC_StartCalibration>
    1d34:	0001                	nop
    1d36:	400127b7          	lui	a5,0x40012
    1d3a:	40078513          	addi	a0,a5,1024 # 40012400 <_eusrstack+0x2000a400>
    1d3e:	105000ef          	jal	ra,2642 <ADC_GetCalibrationStatus>
    1d42:	87aa                	mv	a5,a0
    1d44:	fbed                	bnez	a5,1d36 <KB_Scan_Init+0x212>
    1d46:	400127b7          	lui	a5,0x40012
    1d4a:	40078513          	addi	a0,a5,1024 # 40012400 <_eusrstack+0x2000a400>
    1d4e:	3b1000ef          	jal	ra,28fe <Get_CalibrationValue>
    1d52:	87aa                	mv	a5,a0
    1d54:	873e                	mv	a4,a5
    1d56:	82e19923          	sh	a4,-1998(gp) # 200000da <Calibrattion_Val>
    1d5a:	4585                	li	a1,1
    1d5c:	400127b7          	lui	a5,0x40012
    1d60:	40078513          	addi	a0,a5,1024 # 40012400 <_eusrstack+0x2000a400>
    1d64:	10f000ef          	jal	ra,2672 <ADC_SoftwareStartConvCmd>
    1d68:	0001                	nop
    1d6a:	50b6                	lw	ra,108(sp)
    1d6c:	5426                	lw	s0,104(sp)
    1d6e:	6165                	addi	sp,sp,112
    1d70:	8082                	ret

00001d72 <adcKB>:
    1d72:	1101                	addi	sp,sp,-32
    1d74:	ce22                	sw	s0,28(sp)
    1d76:	1000                	addi	s0,sp,32
    1d78:	fe041723          	sh	zero,-18(s0)
    1d7c:	cac1d783          	lhu	a5,-852(gp) # 20000554 <ADC_Values>
    1d80:	01079713          	slli	a4,a5,0x10
    1d84:	8341                	srli	a4,a4,0x10
    1d86:	5dc00793          	li	a5,1500
    1d8a:	00e7f463          	bgeu	a5,a4,1d92 <adcKB+0x20>
    1d8e:	67a1                	lui	a5,0x8
    1d90:	a011                	j	1d94 <adcKB+0x22>
    1d92:	4781                	li	a5,0
    1d94:	01079713          	slli	a4,a5,0x10
    1d98:	8741                	srai	a4,a4,0x10
    1d9a:	fee41783          	lh	a5,-18(s0)
    1d9e:	8fd9                	or	a5,a5,a4
    1da0:	07c2                	slli	a5,a5,0x10
    1da2:	87c1                	srai	a5,a5,0x10
    1da4:	fef41723          	sh	a5,-18(s0)
    1da8:	cac18793          	addi	a5,gp,-852 # 20000554 <ADC_Values>
    1dac:	23be                	lhu	a5,2(a5)
    1dae:	01079713          	slli	a4,a5,0x10
    1db2:	8341                	srli	a4,a4,0x10
    1db4:	5dc00793          	li	a5,1500
    1db8:	00e7f463          	bgeu	a5,a4,1dc0 <adcKB+0x4e>
    1dbc:	6791                	lui	a5,0x4
    1dbe:	a011                	j	1dc2 <adcKB+0x50>
    1dc0:	4781                	li	a5,0
    1dc2:	01079713          	slli	a4,a5,0x10
    1dc6:	8741                	srai	a4,a4,0x10
    1dc8:	fee41783          	lh	a5,-18(s0)
    1dcc:	8fd9                	or	a5,a5,a4
    1dce:	07c2                	slli	a5,a5,0x10
    1dd0:	87c1                	srai	a5,a5,0x10
    1dd2:	fef41723          	sh	a5,-18(s0)
    1dd6:	cac18793          	addi	a5,gp,-852 # 20000554 <ADC_Values>
    1dda:	23de                	lhu	a5,4(a5)
    1ddc:	01079713          	slli	a4,a5,0x10
    1de0:	8341                	srli	a4,a4,0x10
    1de2:	5dc00793          	li	a5,1500
    1de6:	00e7f463          	bgeu	a5,a4,1dee <adcKB+0x7c>
    1dea:	6789                	lui	a5,0x2
    1dec:	a011                	j	1df0 <adcKB+0x7e>
    1dee:	4781                	li	a5,0
    1df0:	01079713          	slli	a4,a5,0x10
    1df4:	8741                	srai	a4,a4,0x10
    1df6:	fee41783          	lh	a5,-18(s0)
    1dfa:	8fd9                	or	a5,a5,a4
    1dfc:	07c2                	slli	a5,a5,0x10
    1dfe:	87c1                	srai	a5,a5,0x10
    1e00:	fef41723          	sh	a5,-18(s0)
    1e04:	cac18793          	addi	a5,gp,-852 # 20000554 <ADC_Values>
    1e08:	23fe                	lhu	a5,6(a5)
    1e0a:	01079713          	slli	a4,a5,0x10
    1e0e:	8341                	srli	a4,a4,0x10
    1e10:	5dc00793          	li	a5,1500
    1e14:	00e7f463          	bgeu	a5,a4,1e1c <adcKB+0xaa>
    1e18:	6785                	lui	a5,0x1
    1e1a:	a011                	j	1e1e <adcKB+0xac>
    1e1c:	4781                	li	a5,0
    1e1e:	01079713          	slli	a4,a5,0x10
    1e22:	8741                	srai	a4,a4,0x10
    1e24:	fee41783          	lh	a5,-18(s0)
    1e28:	8fd9                	or	a5,a5,a4
    1e2a:	07c2                	slli	a5,a5,0x10
    1e2c:	87c1                	srai	a5,a5,0x10
    1e2e:	fef41723          	sh	a5,-18(s0)
    1e32:	cac18793          	addi	a5,gp,-852 # 20000554 <ADC_Values>
    1e36:	279e                	lhu	a5,8(a5)
    1e38:	01079713          	slli	a4,a5,0x10
    1e3c:	8341                	srli	a4,a4,0x10
    1e3e:	5dc00793          	li	a5,1500
    1e42:	00e7f663          	bgeu	a5,a4,1e4e <adcKB+0xdc>
    1e46:	6785                	lui	a5,0x1
    1e48:	80078793          	addi	a5,a5,-2048 # 800 <__stack_size>
    1e4c:	a011                	j	1e50 <adcKB+0xde>
    1e4e:	4781                	li	a5,0
    1e50:	01079713          	slli	a4,a5,0x10
    1e54:	8741                	srai	a4,a4,0x10
    1e56:	fee41783          	lh	a5,-18(s0)
    1e5a:	8fd9                	or	a5,a5,a4
    1e5c:	07c2                	slli	a5,a5,0x10
    1e5e:	87c1                	srai	a5,a5,0x10
    1e60:	fef41723          	sh	a5,-18(s0)
    1e64:	fee45783          	lhu	a5,-18(s0)
    1e68:	853e                	mv	a0,a5
    1e6a:	4472                	lw	s0,28(sp)
    1e6c:	6105                	addi	sp,sp,32
    1e6e:	8082                	ret

00001e70 <KB_Scan>:
    1e70:	1141                	addi	sp,sp,-16
    1e72:	c606                	sw	ra,12(sp)
    1e74:	c422                	sw	s0,8(sp)
    1e76:	c226                	sw	s1,4(sp)
    1e78:	0800                	addi	s0,sp,16
    1e7a:	8441d783          	lhu	a5,-1980(gp) # 200000ec <scan_cnt.5658>
    1e7e:	0785                	addi	a5,a5,1
    1e80:	01079713          	slli	a4,a5,0x10
    1e84:	8341                	srli	a4,a4,0x10
    1e86:	84e19223          	sh	a4,-1980(gp) # 200000ec <scan_cnt.5658>
    1e8a:	8441d703          	lhu	a4,-1980(gp) # 200000ec <scan_cnt.5658>
    1e8e:	47a9                	li	a5,10
    1e90:	02f777b3          	remu	a5,a4,a5
    1e94:	07c2                	slli	a5,a5,0x10
    1e96:	83c1                	srli	a5,a5,0x10
    1e98:	eb8d                	bnez	a5,1eca <KB_Scan+0x5a>
    1e9a:	84019223          	sh	zero,-1980(gp) # 200000ec <scan_cnt.5658>
    1e9e:	8461d783          	lhu	a5,-1978(gp) # 200000ee <scan_result.5659>
    1ea2:	84be                	mv	s1,a5
    1ea4:	35f9                	jal	1d72 <adcKB>
    1ea6:	87aa                	mv	a5,a0
    1ea8:	873e                	mv	a4,a5
    1eaa:	67c1                	lui	a5,0x10
    1eac:	80078793          	addi	a5,a5,-2048 # f800 <_data_lma+0xa588>
    1eb0:	8ff9                	and	a5,a5,a4
    1eb2:	02f49d63          	bne	s1,a5,1eec <KB_Scan+0x7c>
    1eb6:	4705                	li	a4,1
    1eb8:	82e18a23          	sb	a4,-1996(gp) # 200000dc <KB_Scan_Done>
    1ebc:	8461d703          	lhu	a4,-1978(gp) # 200000ee <scan_result.5659>
    1ec0:	200007b7          	lui	a5,0x20000
    1ec4:	0ae79623          	sh	a4,172(a5) # 200000ac <KB_Scan_Result>
    1ec8:	a015                	j	1eec <KB_Scan+0x7c>
    1eca:	8441d703          	lhu	a4,-1980(gp) # 200000ec <scan_cnt.5658>
    1ece:	4795                	li	a5,5
    1ed0:	02f777b3          	remu	a5,a4,a5
    1ed4:	07c2                	slli	a5,a5,0x10
    1ed6:	83c1                	srli	a5,a5,0x10
    1ed8:	eb91                	bnez	a5,1eec <KB_Scan+0x7c>
    1eda:	3d61                	jal	1d72 <adcKB>
    1edc:	87aa                	mv	a5,a0
    1ede:	8007f793          	andi	a5,a5,-2048
    1ee2:	01079713          	slli	a4,a5,0x10
    1ee6:	8341                	srli	a4,a4,0x10
    1ee8:	84e19323          	sh	a4,-1978(gp) # 200000ee <scan_result.5659>
    1eec:	0001                	nop
    1eee:	40b2                	lw	ra,12(sp)
    1ef0:	4422                	lw	s0,8(sp)
    1ef2:	4492                	lw	s1,4(sp)
    1ef4:	0141                	addi	sp,sp,16
    1ef6:	8082                	ret

00001ef8 <KB_Scan_Handle>:
    1ef8:	1101                	addi	sp,sp,-32
    1efa:	ce06                	sw	ra,28(sp)
    1efc:	cc22                	sw	s0,24(sp)
    1efe:	1000                	addi	s0,sp,32
    1f00:	8341c783          	lbu	a5,-1996(gp) # 200000dc <KB_Scan_Done>
    1f04:	0ff7f793          	andi	a5,a5,255
    1f08:	26078963          	beqz	a5,217a <KB_Scan_Handle+0x282>
    1f0c:	82018a23          	sb	zero,-1996(gp) # 200000dc <KB_Scan_Done>
    1f10:	200007b7          	lui	a5,0x20000
    1f14:	0ac7d783          	lhu	a5,172(a5) # 200000ac <KB_Scan_Result>
    1f18:	01079713          	slli	a4,a5,0x10
    1f1c:	8341                	srli	a4,a4,0x10
    1f1e:	8061d783          	lhu	a5,-2042(gp) # 200000ae <KB_Scan_Last_Result>
    1f22:	07c2                	slli	a5,a5,0x10
    1f24:	83c1                	srli	a5,a5,0x10
    1f26:	24f70a63          	beq	a4,a5,217a <KB_Scan_Handle+0x282>
    1f2a:	47b1                	li	a5,12
    1f2c:	fef407a3          	sb	a5,-17(s0)
    1f30:	a425                	j	2158 <KB_Scan_Handle+0x260>
    1f32:	200007b7          	lui	a5,0x20000
    1f36:	0ac7d783          	lhu	a5,172(a5) # 200000ac <KB_Scan_Result>
    1f3a:	01079713          	slli	a4,a5,0x10
    1f3e:	8341                	srli	a4,a4,0x10
    1f40:	8061d783          	lhu	a5,-2042(gp) # 200000ae <KB_Scan_Last_Result>
    1f44:	07c2                	slli	a5,a5,0x10
    1f46:	83c1                	srli	a5,a5,0x10
    1f48:	8fb9                	xor	a5,a5,a4
    1f4a:	07c2                	slli	a5,a5,0x10
    1f4c:	83c1                	srli	a5,a5,0x10
    1f4e:	873e                	mv	a4,a5
    1f50:	fef44783          	lbu	a5,-17(s0)
    1f54:	40f757b3          	sra	a5,a4,a5
    1f58:	8b85                	andi	a5,a5,1
    1f5a:	1e078a63          	beqz	a5,214e <KB_Scan_Handle+0x256>
    1f5e:	200007b7          	lui	a5,0x20000
    1f62:	0ac7d783          	lhu	a5,172(a5) # 200000ac <KB_Scan_Result>
    1f66:	07c2                	slli	a5,a5,0x10
    1f68:	83c1                	srli	a5,a5,0x10
    1f6a:	873e                	mv	a4,a5
    1f6c:	fef44783          	lbu	a5,-17(s0)
    1f70:	40f757b3          	sra	a5,a4,a5
    1f74:	8b85                	andi	a5,a5,1
    1f76:	14078a63          	beqz	a5,20ca <KB_Scan_Handle+0x1d2>
    1f7a:	fef44703          	lbu	a4,-17(s0)
    1f7e:	47b1                	li	a5,12
    1f80:	02f71a63          	bne	a4,a5,1fb4 <KB_Scan_Handle+0xbc>
    1f84:	4789                	li	a5,2
    1f86:	fef40723          	sb	a5,-18(s0)
    1f8a:	a839                	j	1fa8 <KB_Scan_Handle+0xb0>
    1f8c:	fee44703          	lbu	a4,-18(s0)
    1f90:	83818793          	addi	a5,gp,-1992 # 200000e0 <KB_Data_Pack>
    1f94:	97ba                	add	a5,a5,a4
    1f96:	2398                	lbu	a4,0(a5)
    1f98:	47e9                	li	a5,26
    1f9a:	0cf70463          	beq	a4,a5,2062 <KB_Scan_Handle+0x16a>
    1f9e:	fee44783          	lbu	a5,-18(s0)
    1fa2:	0785                	addi	a5,a5,1
    1fa4:	fef40723          	sb	a5,-18(s0)
    1fa8:	fee44703          	lbu	a4,-18(s0)
    1fac:	479d                	li	a5,7
    1fae:	fce7ffe3          	bgeu	a5,a4,1f8c <KB_Scan_Handle+0x94>
    1fb2:	a87d                	j	2070 <KB_Scan_Handle+0x178>
    1fb4:	fef44703          	lbu	a4,-17(s0)
    1fb8:	47b5                	li	a5,13
    1fba:	02f71a63          	bne	a4,a5,1fee <KB_Scan_Handle+0xf6>
    1fbe:	4789                	li	a5,2
    1fc0:	fef40723          	sb	a5,-18(s0)
    1fc4:	a839                	j	1fe2 <KB_Scan_Handle+0xea>
    1fc6:	fee44703          	lbu	a4,-18(s0)
    1fca:	83818793          	addi	a5,gp,-1992 # 200000e0 <KB_Data_Pack>
    1fce:	97ba                	add	a5,a5,a4
    1fd0:	2398                	lbu	a4,0(a5)
    1fd2:	4791                	li	a5,4
    1fd4:	08f70963          	beq	a4,a5,2066 <KB_Scan_Handle+0x16e>
    1fd8:	fee44783          	lbu	a5,-18(s0)
    1fdc:	0785                	addi	a5,a5,1
    1fde:	fef40723          	sb	a5,-18(s0)
    1fe2:	fee44703          	lbu	a4,-18(s0)
    1fe6:	479d                	li	a5,7
    1fe8:	fce7ffe3          	bgeu	a5,a4,1fc6 <KB_Scan_Handle+0xce>
    1fec:	a051                	j	2070 <KB_Scan_Handle+0x178>
    1fee:	fef44703          	lbu	a4,-17(s0)
    1ff2:	47b9                	li	a5,14
    1ff4:	02f71a63          	bne	a4,a5,2028 <KB_Scan_Handle+0x130>
    1ff8:	4789                	li	a5,2
    1ffa:	fef40723          	sb	a5,-18(s0)
    1ffe:	a839                	j	201c <KB_Scan_Handle+0x124>
    2000:	fee44703          	lbu	a4,-18(s0)
    2004:	83818793          	addi	a5,gp,-1992 # 200000e0 <KB_Data_Pack>
    2008:	97ba                	add	a5,a5,a4
    200a:	2398                	lbu	a4,0(a5)
    200c:	47d9                	li	a5,22
    200e:	04f70e63          	beq	a4,a5,206a <KB_Scan_Handle+0x172>
    2012:	fee44783          	lbu	a5,-18(s0)
    2016:	0785                	addi	a5,a5,1
    2018:	fef40723          	sb	a5,-18(s0)
    201c:	fee44703          	lbu	a4,-18(s0)
    2020:	479d                	li	a5,7
    2022:	fce7ffe3          	bgeu	a5,a4,2000 <KB_Scan_Handle+0x108>
    2026:	a0a9                	j	2070 <KB_Scan_Handle+0x178>
    2028:	fef44703          	lbu	a4,-17(s0)
    202c:	47bd                	li	a5,15
    202e:	04f71163          	bne	a4,a5,2070 <KB_Scan_Handle+0x178>
    2032:	4789                	li	a5,2
    2034:	fef40723          	sb	a5,-18(s0)
    2038:	a839                	j	2056 <KB_Scan_Handle+0x15e>
    203a:	fee44703          	lbu	a4,-18(s0)
    203e:	83818793          	addi	a5,gp,-1992 # 200000e0 <KB_Data_Pack>
    2042:	97ba                	add	a5,a5,a4
    2044:	2398                	lbu	a4,0(a5)
    2046:	479d                	li	a5,7
    2048:	02f70363          	beq	a4,a5,206e <KB_Scan_Handle+0x176>
    204c:	fee44783          	lbu	a5,-18(s0)
    2050:	0785                	addi	a5,a5,1
    2052:	fef40723          	sb	a5,-18(s0)
    2056:	fee44703          	lbu	a4,-18(s0)
    205a:	479d                	li	a5,7
    205c:	fce7ffe3          	bgeu	a5,a4,203a <KB_Scan_Handle+0x142>
    2060:	a801                	j	2070 <KB_Scan_Handle+0x178>
    2062:	0001                	nop
    2064:	a031                	j	2070 <KB_Scan_Handle+0x178>
    2066:	0001                	nop
    2068:	a021                	j	2070 <KB_Scan_Handle+0x178>
    206a:	0001                	nop
    206c:	a011                	j	2070 <KB_Scan_Handle+0x178>
    206e:	0001                	nop
    2070:	fee44703          	lbu	a4,-18(s0)
    2074:	47a1                	li	a5,8
    2076:	00f71763          	bne	a4,a5,2084 <KB_Scan_Handle+0x18c>
    207a:	83818793          	addi	a5,gp,-1992 # 200000e0 <KB_Data_Pack>
    207e:	000782a3          	sb	zero,5(a5)
    2082:	a825                	j	20ba <KB_Scan_Handle+0x1c2>
    2084:	fee44703          	lbu	a4,-18(s0)
    2088:	83818793          	addi	a5,gp,-1992 # 200000e0 <KB_Data_Pack>
    208c:	00f706b3          	add	a3,a4,a5
    2090:	fee44783          	lbu	a5,-18(s0)
    2094:	00178713          	addi	a4,a5,1
    2098:	83818793          	addi	a5,gp,-1992 # 200000e0 <KB_Data_Pack>
    209c:	00f705b3          	add	a1,a4,a5
    20a0:	fee44783          	lbu	a5,-18(s0)
    20a4:	471d                	li	a4,7
    20a6:	40f707b3          	sub	a5,a4,a5
    20aa:	863e                	mv	a2,a5
    20ac:	8536                	mv	a0,a3
    20ae:	459010ef          	jal	ra,3d06 <memcpy>
    20b2:	83818793          	addi	a5,gp,-1992 # 200000e0 <KB_Data_Pack>
    20b6:	000783a3          	sb	zero,7(a5)
    20ba:	8481c783          	lbu	a5,-1976(gp) # 200000f0 <key_cnt.5666>
    20be:	17fd                	addi	a5,a5,-1
    20c0:	0ff7f713          	andi	a4,a5,255
    20c4:	84e18423          	sb	a4,-1976(gp) # 200000f0 <key_cnt.5666>
    20c8:	a059                	j	214e <KB_Scan_Handle+0x256>
    20ca:	fef44703          	lbu	a4,-17(s0)
    20ce:	47b1                	li	a5,12
    20d0:	00f71c63          	bne	a4,a5,20e8 <KB_Scan_Handle+0x1f0>
    20d4:	8481c783          	lbu	a5,-1976(gp) # 200000f0 <key_cnt.5666>
    20d8:	00278713          	addi	a4,a5,2
    20dc:	83818793          	addi	a5,gp,-1992 # 200000e0 <KB_Data_Pack>
    20e0:	97ba                	add	a5,a5,a4
    20e2:	4769                	li	a4,26
    20e4:	a398                	sb	a4,0(a5)
    20e6:	a8a9                	j	2140 <KB_Scan_Handle+0x248>
    20e8:	fef44703          	lbu	a4,-17(s0)
    20ec:	47b5                	li	a5,13
    20ee:	00f71c63          	bne	a4,a5,2106 <KB_Scan_Handle+0x20e>
    20f2:	8481c783          	lbu	a5,-1976(gp) # 200000f0 <key_cnt.5666>
    20f6:	00278713          	addi	a4,a5,2
    20fa:	83818793          	addi	a5,gp,-1992 # 200000e0 <KB_Data_Pack>
    20fe:	97ba                	add	a5,a5,a4
    2100:	4711                	li	a4,4
    2102:	a398                	sb	a4,0(a5)
    2104:	a835                	j	2140 <KB_Scan_Handle+0x248>
    2106:	fef44703          	lbu	a4,-17(s0)
    210a:	47b9                	li	a5,14
    210c:	00f71c63          	bne	a4,a5,2124 <KB_Scan_Handle+0x22c>
    2110:	8481c783          	lbu	a5,-1976(gp) # 200000f0 <key_cnt.5666>
    2114:	00278713          	addi	a4,a5,2
    2118:	83818793          	addi	a5,gp,-1992 # 200000e0 <KB_Data_Pack>
    211c:	97ba                	add	a5,a5,a4
    211e:	4759                	li	a4,22
    2120:	a398                	sb	a4,0(a5)
    2122:	a839                	j	2140 <KB_Scan_Handle+0x248>
    2124:	fef44703          	lbu	a4,-17(s0)
    2128:	47bd                	li	a5,15
    212a:	00f71b63          	bne	a4,a5,2140 <KB_Scan_Handle+0x248>
    212e:	8481c783          	lbu	a5,-1976(gp) # 200000f0 <key_cnt.5666>
    2132:	00278713          	addi	a4,a5,2
    2136:	83818793          	addi	a5,gp,-1992 # 200000e0 <KB_Data_Pack>
    213a:	97ba                	add	a5,a5,a4
    213c:	471d                	li	a4,7
    213e:	a398                	sb	a4,0(a5)
    2140:	8481c783          	lbu	a5,-1976(gp) # 200000f0 <key_cnt.5666>
    2144:	0785                	addi	a5,a5,1
    2146:	0ff7f713          	andi	a4,a5,255
    214a:	84e18423          	sb	a4,-1976(gp) # 200000f0 <key_cnt.5666>
    214e:	fef44783          	lbu	a5,-17(s0)
    2152:	0785                	addi	a5,a5,1
    2154:	fef407a3          	sb	a5,-17(s0)
    2158:	fef44703          	lbu	a4,-17(s0)
    215c:	47bd                	li	a5,15
    215e:	dce7fae3          	bgeu	a5,a4,1f32 <KB_Scan_Handle+0x3a>
    2162:	200007b7          	lui	a5,0x20000
    2166:	0ac7d783          	lhu	a5,172(a5) # 200000ac <KB_Scan_Result>
    216a:	01079713          	slli	a4,a5,0x10
    216e:	8341                	srli	a4,a4,0x10
    2170:	80e19323          	sh	a4,-2042(gp) # 200000ae <KB_Scan_Last_Result>
    2174:	4705                	li	a4,1
    2176:	84e184a3          	sb	a4,-1975(gp) # 200000f1 <flag.5667>
    217a:	8491c783          	lbu	a5,-1975(gp) # 200000f1 <flag.5667>
    217e:	c395                	beqz	a5,21a2 <KB_Scan_Handle+0x2aa>
    2180:	4685                	li	a3,1
    2182:	4621                	li	a2,8
    2184:	83818593          	addi	a1,gp,-1992 # 200000e0 <KB_Data_Pack>
    2188:	4505                	li	a0,1
    218a:	daefe0ef          	jal	ra,738 <USBHS_Endp_DataUp>
    218e:	87aa                	mv	a5,a0
    2190:	fef406a3          	sb	a5,-19(s0)
    2194:	fed44703          	lbu	a4,-19(s0)
    2198:	4785                	li	a5,1
    219a:	00f71463          	bne	a4,a5,21a2 <KB_Scan_Handle+0x2aa>
    219e:	840184a3          	sb	zero,-1975(gp) # 200000f1 <flag.5667>
    21a2:	0001                	nop
    21a4:	40f2                	lw	ra,28(sp)
    21a6:	4462                	lw	s0,24(sp)
    21a8:	6105                	addi	sp,sp,32
    21aa:	8082                	ret

000021ac <USB_Sleep_Wakeup_CFG>:
    21ac:	1101                	addi	sp,sp,-32
    21ae:	ce06                	sw	ra,28(sp)
    21b0:	cc22                	sw	s0,24(sp)
    21b2:	1000                	addi	s0,sp,32
    21b4:	fe042023          	sw	zero,-32(s0)
    21b8:	fe042223          	sw	zero,-28(s0)
    21bc:	fe042423          	sw	zero,-24(s0)
    21c0:	fe042623          	sw	zero,-20(s0)
    21c4:	001007b7          	lui	a5,0x100
    21c8:	fef42023          	sw	a5,-32(s0)
    21cc:	4791                	li	a5,4
    21ce:	fef42223          	sw	a5,-28(s0)
    21d2:	47c1                	li	a5,16
    21d4:	fef42423          	sw	a5,-24(s0)
    21d8:	4785                	li	a5,1
    21da:	fef42623          	sw	a5,-20(s0)
    21de:	fe040793          	addi	a5,s0,-32
    21e2:	853e                	mv	a0,a5
    21e4:	53b000ef          	jal	ra,2f1e <EXTI_Init>
    21e8:	0001                	nop
    21ea:	40f2                	lw	ra,28(sp)
    21ec:	4462                	lw	s0,24(sp)
    21ee:	6105                	addi	sp,sp,32
    21f0:	8082                	ret

000021f2 <MCU_Sleep_Wakeup_Operate>:
    21f2:	1101                	addi	sp,sp,-32
    21f4:	ce06                	sw	ra,28(sp)
    21f6:	cc22                	sw	s0,24(sp)
    21f8:	1000                	addi	s0,sp,32
    21fa:	6795                	lui	a5,0x5
    21fc:	fd478513          	addi	a0,a5,-44 # 4fd4 <_read+0x70>
    2200:	4cd010ef          	jal	ra,3ecc <puts>
    2204:	08800793          	li	a5,136
    2208:	8007b073          	csrc	0x800,a5
    220c:	0000100f          	fence.i
    2210:	400237b7          	lui	a5,0x40023
    2214:	40078793          	addi	a5,a5,1024 # 40023400 <_eusrstack+0x2001b400>
    2218:	339c                	lbu	a5,1(a5)
    221a:	0ff7f713          	andi	a4,a5,255
    221e:	400237b7          	lui	a5,0x40023
    2222:	40078793          	addi	a5,a5,1024 # 40023400 <_eusrstack+0x2001b400>
    2226:	9b3d                	andi	a4,a4,-17
    2228:	0ff77713          	andi	a4,a4,255
    222c:	b398                	sb	a4,1(a5)
    222e:	653d                	lui	a0,0xf
    2230:	697000ef          	jal	ra,30c6 <EXTI_ClearFlag>
    2234:	0f000513          	li	a0,240
    2238:	68f000ef          	jal	ra,30c6 <EXTI_ClearFlag>
    223c:	e000e737          	lui	a4,0xe000e
    2240:	6785                	lui	a5,0x1
    2242:	97ba                	add	a5,a5,a4
    2244:	d107a783          	lw	a5,-752(a5) # d10 <USBHS_IRQHandler+0x364>
    2248:	fef42623          	sw	a5,-20(s0)
    224c:	e000e737          	lui	a4,0xe000e
    2250:	6785                	lui	a5,0x1
    2252:	97ba                	add	a5,a5,a4
    2254:	d107a783          	lw	a5,-752(a5) # d10 <USBHS_IRQHandler+0x364>
    2258:	e000e6b7          	lui	a3,0xe000e
    225c:	0287e713          	ori	a4,a5,40
    2260:	6785                	lui	a5,0x1
    2262:	97b6                	add	a5,a5,a3
    2264:	d0e7a823          	sw	a4,-752(a5) # d10 <USBHS_IRQHandler+0x364>
    2268:	e000e737          	lui	a4,0xe000e
    226c:	6785                	lui	a5,0x1
    226e:	97ba                	add	a5,a5,a4
    2270:	d107a783          	lw	a5,-752(a5) # d10 <USBHS_IRQHandler+0x364>
    2274:	fdf7f713          	andi	a4,a5,-33
    2278:	fec42783          	lw	a5,-20(s0)
    227c:	0207f793          	andi	a5,a5,32
    2280:	e000e6b7          	lui	a3,0xe000e
    2284:	8f5d                	or	a4,a4,a5
    2286:	6785                	lui	a5,0x1
    2288:	97b6                	add	a5,a5,a3
    228a:	d0e7a823          	sw	a4,-752(a5) # d10 <USBHS_IRQHandler+0x364>
    228e:	e000e737          	lui	a4,0xe000e
    2292:	6785                	lui	a5,0x1
    2294:	97ba                	add	a5,a5,a4
    2296:	d107a783          	lw	a5,-752(a5) # d10 <USBHS_IRQHandler+0x364>
    229a:	e000e6b7          	lui	a3,0xe000e
    229e:	0087e713          	ori	a4,a5,8
    22a2:	6785                	lui	a5,0x1
    22a4:	97b6                	add	a5,a5,a3
    22a6:	d0e7a823          	sw	a4,-752(a5) # d10 <USBHS_IRQHandler+0x364>
    22aa:	10500073          	wfi
    22ae:	400237b7          	lui	a5,0x40023
    22b2:	40078793          	addi	a5,a5,1024 # 40023400 <_eusrstack+0x2001b400>
    22b6:	23fc                	lbu	a5,6(a5)
    22b8:	0ff7f793          	andi	a5,a5,255
    22bc:	8b91                	andi	a5,a5,4
    22be:	c795                	beqz	a5,22ea <MCU_Sleep_Wakeup_Operate+0xf8>
    22c0:	400237b7          	lui	a5,0x40023
    22c4:	40078793          	addi	a5,a5,1024 # 40023400 <_eusrstack+0x2001b400>
    22c8:	339c                	lbu	a5,1(a5)
    22ca:	0ff7f713          	andi	a4,a5,255
    22ce:	400237b7          	lui	a5,0x40023
    22d2:	40078793          	addi	a5,a5,1024 # 40023400 <_eusrstack+0x2001b400>
    22d6:	01076713          	ori	a4,a4,16
    22da:	0ff77713          	andi	a4,a4,255
    22de:	b398                	sb	a4,1(a5)
    22e0:	08800793          	li	a5,136
    22e4:	8007a073          	csrs	0x800,a5
    22e8:	a89d                	j	235e <MCU_Sleep_Wakeup_Operate+0x16c>
    22ea:	4589                	li	a1,2
    22ec:	4505                	li	a0,1
    22ee:	104010ef          	jal	ra,33f2 <PWR_EnterSTOPMode>
    22f2:	bc2ff0ef          	jal	ra,16b4 <SystemInit>
    22f6:	c56ff0ef          	jal	ra,174c <SystemCoreClockUpdate>
    22fa:	400237b7          	lui	a5,0x40023
    22fe:	40078793          	addi	a5,a5,1024 # 40023400 <_eusrstack+0x2001b400>
    2302:	339c                	lbu	a5,1(a5)
    2304:	0ff7f713          	andi	a4,a5,255
    2308:	400237b7          	lui	a5,0x40023
    230c:	40078793          	addi	a5,a5,1024 # 40023400 <_eusrstack+0x2001b400>
    2310:	01076713          	ori	a4,a4,16
    2314:	0ff77713          	andi	a4,a4,255
    2318:	b398                	sb	a4,1(a5)
    231a:	a3afe0ef          	jal	ra,554 <USBHS_RCC_Init>
    231e:	653d                	lui	a0,0xf
    2320:	56f000ef          	jal	ra,308e <EXTI_GetFlagStatus>
    2324:	87aa                	mv	a5,a0
    2326:	c799                	beqz	a5,2334 <MCU_Sleep_Wakeup_Operate+0x142>
    2328:	653d                	lui	a0,0xf
    232a:	59d000ef          	jal	ra,30c6 <EXTI_ClearFlag>
    232e:	a90ff0ef          	jal	ra,15be <USBHS_Send_Resume>
    2332:	a829                	j	234c <MCU_Sleep_Wakeup_Operate+0x15a>
    2334:	0f000513          	li	a0,240
    2338:	557000ef          	jal	ra,308e <EXTI_GetFlagStatus>
    233c:	87aa                	mv	a5,a0
    233e:	c799                	beqz	a5,234c <MCU_Sleep_Wakeup_Operate+0x15a>
    2340:	0f000513          	li	a0,240
    2344:	583000ef          	jal	ra,30c6 <EXTI_ClearFlag>
    2348:	a76ff0ef          	jal	ra,15be <USBHS_Send_Resume>
    234c:	08800793          	li	a5,136
    2350:	8007a073          	csrs	0x800,a5
    2354:	6795                	lui	a5,0x5
    2356:	fdc78513          	addi	a0,a5,-36 # 4fdc <_read+0x78>
    235a:	373010ef          	jal	ra,3ecc <puts>
    235e:	40f2                	lw	ra,28(sp)
    2360:	4462                	lw	s0,24(sp)
    2362:	6105                	addi	sp,sp,32
    2364:	8082                	ret

00002366 <ADC1_2_IRQHandler>:
    2366:	a001                	j	2366 <ADC1_2_IRQHandler>

00002368 <handle_reset>:
    2368:	1fffe197          	auipc	gp,0x1fffe
    236c:	54018193          	addi	gp,gp,1344 # 200008a8 <__global_pointer$>
    2370:	20006117          	auipc	sp,0x20006
    2374:	c9010113          	addi	sp,sp,-880 # 20008000 <_eusrstack>
    2378:	00003517          	auipc	a0,0x3
    237c:	f0050513          	addi	a0,a0,-256 # 5278 <_data_lma>
    2380:	1fffe597          	auipc	a1,0x1fffe
    2384:	c8058593          	addi	a1,a1,-896 # 20000000 <_data_vma>
    2388:	81818613          	addi	a2,gp,-2024 # 200000c0 <_edata>
    238c:	00c5fa63          	bgeu	a1,a2,23a0 <handle_reset+0x38>
    2390:	00052283          	lw	t0,0(a0)
    2394:	0055a023          	sw	t0,0(a1)
    2398:	0511                	addi	a0,a0,4
    239a:	0591                	addi	a1,a1,4
    239c:	fec5eae3          	bltu	a1,a2,2390 <handle_reset+0x28>
    23a0:	81818513          	addi	a0,gp,-2024 # 200000c0 <_edata>
    23a4:	cc018593          	addi	a1,gp,-832 # 20000568 <_ebss>
    23a8:	00b57763          	bgeu	a0,a1,23b6 <handle_reset+0x4e>
    23ac:	00052023          	sw	zero,0(a0)
    23b0:	0511                	addi	a0,a0,4
    23b2:	feb56de3          	bltu	a0,a1,23ac <handle_reset+0x44>
    23b6:	42fd                	li	t0,31
    23b8:	bc029073          	csrw	0xbc0,t0
    23bc:	42ad                	li	t0,11
    23be:	80429073          	csrw	0x804,t0
    23c2:	000062b7          	lui	t0,0x6
    23c6:	08828293          	addi	t0,t0,136 # 6088 <_data_lma+0xe10>
    23ca:	30029073          	csrw	mstatus,t0
    23ce:	ffffe297          	auipc	t0,0xffffe
    23d2:	c3628293          	addi	t0,t0,-970 # 4 <_einit>
    23d6:	0032e293          	ori	t0,t0,3
    23da:	30529073          	csrw	mtvec,t0
    23de:	ad6ff0ef          	jal	ra,16b4 <SystemInit>
    23e2:	fffff297          	auipc	t0,0xfffff
    23e6:	23828293          	addi	t0,t0,568 # 161a <main>
    23ea:	34129073          	csrw	mepc,t0
    23ee:	30200073          	mret

000023f2 <ADC_DeInit>:
    23f2:	1101                	addi	sp,sp,-32
    23f4:	ce06                	sw	ra,28(sp)
    23f6:	cc22                	sw	s0,24(sp)
    23f8:	1000                	addi	s0,sp,32
    23fa:	fea42623          	sw	a0,-20(s0)
    23fe:	fec42703          	lw	a4,-20(s0)
    2402:	400127b7          	lui	a5,0x40012
    2406:	40078793          	addi	a5,a5,1024 # 40012400 <_eusrstack+0x2000a400>
    240a:	00f71d63          	bne	a4,a5,2424 <ADC_DeInit+0x32>
    240e:	4585                	li	a1,1
    2410:	20000513          	li	a0,512
    2414:	234010ef          	jal	ra,3648 <RCC_APB2PeriphResetCmd>
    2418:	4581                	li	a1,0
    241a:	20000513          	li	a0,512
    241e:	22a010ef          	jal	ra,3648 <RCC_APB2PeriphResetCmd>
    2422:	a01d                	j	2448 <ADC_DeInit+0x56>
    2424:	fec42703          	lw	a4,-20(s0)
    2428:	400137b7          	lui	a5,0x40013
    242c:	80078793          	addi	a5,a5,-2048 # 40012800 <_eusrstack+0x2000a800>
    2430:	00f71c63          	bne	a4,a5,2448 <ADC_DeInit+0x56>
    2434:	4585                	li	a1,1
    2436:	40000513          	li	a0,1024
    243a:	20e010ef          	jal	ra,3648 <RCC_APB2PeriphResetCmd>
    243e:	4581                	li	a1,0
    2440:	40000513          	li	a0,1024
    2444:	204010ef          	jal	ra,3648 <RCC_APB2PeriphResetCmd>
    2448:	0001                	nop
    244a:	40f2                	lw	ra,28(sp)
    244c:	4462                	lw	s0,24(sp)
    244e:	6105                	addi	sp,sp,32
    2450:	8082                	ret

00002452 <ADC_Init>:
    2452:	7179                	addi	sp,sp,-48
    2454:	d622                	sw	s0,44(sp)
    2456:	1800                	addi	s0,sp,48
    2458:	fca42e23          	sw	a0,-36(s0)
    245c:	fcb42c23          	sw	a1,-40(s0)
    2460:	fe042623          	sw	zero,-20(s0)
    2464:	fe0405a3          	sb	zero,-21(s0)
    2468:	fdc42783          	lw	a5,-36(s0)
    246c:	43dc                	lw	a5,4(a5)
    246e:	fef42623          	sw	a5,-20(s0)
    2472:	fec42703          	lw	a4,-20(s0)
    2476:	e0f107b7          	lui	a5,0xe0f10
    247a:	eff78793          	addi	a5,a5,-257 # e0f0feff <_eusrstack+0xc0f07eff>
    247e:	8ff9                	and	a5,a5,a4
    2480:	fef42623          	sw	a5,-20(s0)
    2484:	fd842783          	lw	a5,-40(s0)
    2488:	4398                	lw	a4,0(a5)
    248a:	fd842783          	lw	a5,-40(s0)
    248e:	4f9c                	lw	a5,24(a5)
    2490:	8f5d                	or	a4,a4,a5
    2492:	fd842783          	lw	a5,-40(s0)
    2496:	4fdc                	lw	a5,28(a5)
    2498:	8f5d                	or	a4,a4,a5
    249a:	fd842783          	lw	a5,-40(s0)
    249e:	43dc                	lw	a5,4(a5)
    24a0:	07a2                	slli	a5,a5,0x8
    24a2:	8fd9                	or	a5,a5,a4
    24a4:	fec42703          	lw	a4,-20(s0)
    24a8:	8fd9                	or	a5,a5,a4
    24aa:	fef42623          	sw	a5,-20(s0)
    24ae:	fdc42783          	lw	a5,-36(s0)
    24b2:	fec42703          	lw	a4,-20(s0)
    24b6:	c3d8                	sw	a4,4(a5)
    24b8:	fdc42783          	lw	a5,-36(s0)
    24bc:	479c                	lw	a5,8(a5)
    24be:	fef42623          	sw	a5,-20(s0)
    24c2:	fec42703          	lw	a4,-20(s0)
    24c6:	fff1f7b7          	lui	a5,0xfff1f
    24ca:	7fd78793          	addi	a5,a5,2045 # fff1f7fd <_eusrstack+0xdff177fd>
    24ce:	8ff9                	and	a5,a5,a4
    24d0:	fef42623          	sw	a5,-20(s0)
    24d4:	fd842783          	lw	a5,-40(s0)
    24d8:	4b98                	lw	a4,16(a5)
    24da:	fd842783          	lw	a5,-40(s0)
    24de:	47dc                	lw	a5,12(a5)
    24e0:	8f5d                	or	a4,a4,a5
    24e2:	fd842783          	lw	a5,-40(s0)
    24e6:	479c                	lw	a5,8(a5)
    24e8:	0786                	slli	a5,a5,0x1
    24ea:	8fd9                	or	a5,a5,a4
    24ec:	fec42703          	lw	a4,-20(s0)
    24f0:	8fd9                	or	a5,a5,a4
    24f2:	fef42623          	sw	a5,-20(s0)
    24f6:	fdc42783          	lw	a5,-36(s0)
    24fa:	fec42703          	lw	a4,-20(s0)
    24fe:	c798                	sw	a4,8(a5)
    2500:	fdc42783          	lw	a5,-36(s0)
    2504:	57dc                	lw	a5,44(a5)
    2506:	fef42623          	sw	a5,-20(s0)
    250a:	fec42703          	lw	a4,-20(s0)
    250e:	ff1007b7          	lui	a5,0xff100
    2512:	17fd                	addi	a5,a5,-1
    2514:	8ff9                	and	a5,a5,a4
    2516:	fef42623          	sw	a5,-20(s0)
    251a:	fd842783          	lw	a5,-40(s0)
    251e:	2bdc                	lbu	a5,20(a5)
    2520:	17fd                	addi	a5,a5,-1
    2522:	0ff7f713          	andi	a4,a5,255
    2526:	feb44783          	lbu	a5,-21(s0)
    252a:	8fd9                	or	a5,a5,a4
    252c:	fef405a3          	sb	a5,-21(s0)
    2530:	feb44783          	lbu	a5,-21(s0)
    2534:	07d2                	slli	a5,a5,0x14
    2536:	fec42703          	lw	a4,-20(s0)
    253a:	8fd9                	or	a5,a5,a4
    253c:	fef42623          	sw	a5,-20(s0)
    2540:	fdc42783          	lw	a5,-36(s0)
    2544:	fec42703          	lw	a4,-20(s0)
    2548:	d7d8                	sw	a4,44(a5)
    254a:	0001                	nop
    254c:	5432                	lw	s0,44(sp)
    254e:	6145                	addi	sp,sp,48
    2550:	8082                	ret

00002552 <ADC_Cmd>:
    2552:	1101                	addi	sp,sp,-32
    2554:	ce22                	sw	s0,28(sp)
    2556:	1000                	addi	s0,sp,32
    2558:	fea42623          	sw	a0,-20(s0)
    255c:	feb42423          	sw	a1,-24(s0)
    2560:	fe842783          	lw	a5,-24(s0)
    2564:	cb91                	beqz	a5,2578 <ADC_Cmd+0x26>
    2566:	fec42783          	lw	a5,-20(s0)
    256a:	479c                	lw	a5,8(a5)
    256c:	0017e713          	ori	a4,a5,1
    2570:	fec42783          	lw	a5,-20(s0)
    2574:	c798                	sw	a4,8(a5)
    2576:	a809                	j	2588 <ADC_Cmd+0x36>
    2578:	fec42783          	lw	a5,-20(s0)
    257c:	479c                	lw	a5,8(a5)
    257e:	ffe7f713          	andi	a4,a5,-2
    2582:	fec42783          	lw	a5,-20(s0)
    2586:	c798                	sw	a4,8(a5)
    2588:	0001                	nop
    258a:	4472                	lw	s0,28(sp)
    258c:	6105                	addi	sp,sp,32
    258e:	8082                	ret

00002590 <ADC_DMACmd>:
    2590:	1101                	addi	sp,sp,-32
    2592:	ce22                	sw	s0,28(sp)
    2594:	1000                	addi	s0,sp,32
    2596:	fea42623          	sw	a0,-20(s0)
    259a:	feb42423          	sw	a1,-24(s0)
    259e:	fe842783          	lw	a5,-24(s0)
    25a2:	cb91                	beqz	a5,25b6 <ADC_DMACmd+0x26>
    25a4:	fec42783          	lw	a5,-20(s0)
    25a8:	479c                	lw	a5,8(a5)
    25aa:	1007e713          	ori	a4,a5,256
    25ae:	fec42783          	lw	a5,-20(s0)
    25b2:	c798                	sw	a4,8(a5)
    25b4:	a809                	j	25c6 <ADC_DMACmd+0x36>
    25b6:	fec42783          	lw	a5,-20(s0)
    25ba:	479c                	lw	a5,8(a5)
    25bc:	eff7f713          	andi	a4,a5,-257
    25c0:	fec42783          	lw	a5,-20(s0)
    25c4:	c798                	sw	a4,8(a5)
    25c6:	0001                	nop
    25c8:	4472                	lw	s0,28(sp)
    25ca:	6105                	addi	sp,sp,32
    25cc:	8082                	ret

000025ce <ADC_ResetCalibration>:
    25ce:	1101                	addi	sp,sp,-32
    25d0:	ce22                	sw	s0,28(sp)
    25d2:	1000                	addi	s0,sp,32
    25d4:	fea42623          	sw	a0,-20(s0)
    25d8:	fec42783          	lw	a5,-20(s0)
    25dc:	479c                	lw	a5,8(a5)
    25de:	0087e713          	ori	a4,a5,8
    25e2:	fec42783          	lw	a5,-20(s0)
    25e6:	c798                	sw	a4,8(a5)
    25e8:	0001                	nop
    25ea:	4472                	lw	s0,28(sp)
    25ec:	6105                	addi	sp,sp,32
    25ee:	8082                	ret

000025f0 <ADC_GetResetCalibrationStatus>:
    25f0:	7179                	addi	sp,sp,-48
    25f2:	d622                	sw	s0,44(sp)
    25f4:	1800                	addi	s0,sp,48
    25f6:	fca42e23          	sw	a0,-36(s0)
    25fa:	fe042623          	sw	zero,-20(s0)
    25fe:	fdc42783          	lw	a5,-36(s0)
    2602:	479c                	lw	a5,8(a5)
    2604:	8ba1                	andi	a5,a5,8
    2606:	c789                	beqz	a5,2610 <ADC_GetResetCalibrationStatus+0x20>
    2608:	4785                	li	a5,1
    260a:	fef42623          	sw	a5,-20(s0)
    260e:	a019                	j	2614 <ADC_GetResetCalibrationStatus+0x24>
    2610:	fe042623          	sw	zero,-20(s0)
    2614:	fec42783          	lw	a5,-20(s0)
    2618:	853e                	mv	a0,a5
    261a:	5432                	lw	s0,44(sp)
    261c:	6145                	addi	sp,sp,48
    261e:	8082                	ret

00002620 <ADC_StartCalibration>:
    2620:	1101                	addi	sp,sp,-32
    2622:	ce22                	sw	s0,28(sp)
    2624:	1000                	addi	s0,sp,32
    2626:	fea42623          	sw	a0,-20(s0)
    262a:	fec42783          	lw	a5,-20(s0)
    262e:	479c                	lw	a5,8(a5)
    2630:	0047e713          	ori	a4,a5,4
    2634:	fec42783          	lw	a5,-20(s0)
    2638:	c798                	sw	a4,8(a5)
    263a:	0001                	nop
    263c:	4472                	lw	s0,28(sp)
    263e:	6105                	addi	sp,sp,32
    2640:	8082                	ret

00002642 <ADC_GetCalibrationStatus>:
    2642:	7179                	addi	sp,sp,-48
    2644:	d622                	sw	s0,44(sp)
    2646:	1800                	addi	s0,sp,48
    2648:	fca42e23          	sw	a0,-36(s0)
    264c:	fe042623          	sw	zero,-20(s0)
    2650:	fdc42783          	lw	a5,-36(s0)
    2654:	479c                	lw	a5,8(a5)
    2656:	8b91                	andi	a5,a5,4
    2658:	c789                	beqz	a5,2662 <ADC_GetCalibrationStatus+0x20>
    265a:	4785                	li	a5,1
    265c:	fef42623          	sw	a5,-20(s0)
    2660:	a019                	j	2666 <ADC_GetCalibrationStatus+0x24>
    2662:	fe042623          	sw	zero,-20(s0)
    2666:	fec42783          	lw	a5,-20(s0)
    266a:	853e                	mv	a0,a5
    266c:	5432                	lw	s0,44(sp)
    266e:	6145                	addi	sp,sp,48
    2670:	8082                	ret

00002672 <ADC_SoftwareStartConvCmd>:
    2672:	1101                	addi	sp,sp,-32
    2674:	ce22                	sw	s0,28(sp)
    2676:	1000                	addi	s0,sp,32
    2678:	fea42623          	sw	a0,-20(s0)
    267c:	feb42423          	sw	a1,-24(s0)
    2680:	fe842783          	lw	a5,-24(s0)
    2684:	cb99                	beqz	a5,269a <ADC_SoftwareStartConvCmd+0x28>
    2686:	fec42783          	lw	a5,-20(s0)
    268a:	4798                	lw	a4,8(a5)
    268c:	005007b7          	lui	a5,0x500
    2690:	8f5d                	or	a4,a4,a5
    2692:	fec42783          	lw	a5,-20(s0)
    2696:	c798                	sw	a4,8(a5)
    2698:	a819                	j	26ae <ADC_SoftwareStartConvCmd+0x3c>
    269a:	fec42783          	lw	a5,-20(s0)
    269e:	4798                	lw	a4,8(a5)
    26a0:	ffb007b7          	lui	a5,0xffb00
    26a4:	17fd                	addi	a5,a5,-1
    26a6:	8f7d                	and	a4,a4,a5
    26a8:	fec42783          	lw	a5,-20(s0)
    26ac:	c798                	sw	a4,8(a5)
    26ae:	0001                	nop
    26b0:	4472                	lw	s0,28(sp)
    26b2:	6105                	addi	sp,sp,32
    26b4:	8082                	ret

000026b6 <ADC_RegularChannelConfig>:
    26b6:	7179                	addi	sp,sp,-48
    26b8:	d622                	sw	s0,44(sp)
    26ba:	1800                	addi	s0,sp,48
    26bc:	fca42e23          	sw	a0,-36(s0)
    26c0:	87ae                	mv	a5,a1
    26c2:	8736                	mv	a4,a3
    26c4:	fcf40da3          	sb	a5,-37(s0)
    26c8:	87b2                	mv	a5,a2
    26ca:	fcf40d23          	sb	a5,-38(s0)
    26ce:	87ba                	mv	a5,a4
    26d0:	fcf40ca3          	sb	a5,-39(s0)
    26d4:	fe042623          	sw	zero,-20(s0)
    26d8:	fe042423          	sw	zero,-24(s0)
    26dc:	fdb44703          	lbu	a4,-37(s0)
    26e0:	47a5                	li	a5,9
    26e2:	06e7f663          	bgeu	a5,a4,274e <ADC_RegularChannelConfig+0x98>
    26e6:	fdc42783          	lw	a5,-36(s0)
    26ea:	47dc                	lw	a5,12(a5)
    26ec:	fef42623          	sw	a5,-20(s0)
    26f0:	fdb44783          	lbu	a5,-37(s0)
    26f4:	ff678713          	addi	a4,a5,-10 # ffaffff6 <_eusrstack+0xdfaf7ff6>
    26f8:	87ba                	mv	a5,a4
    26fa:	0786                	slli	a5,a5,0x1
    26fc:	97ba                	add	a5,a5,a4
    26fe:	471d                	li	a4,7
    2700:	00f717b3          	sll	a5,a4,a5
    2704:	fef42423          	sw	a5,-24(s0)
    2708:	fe842783          	lw	a5,-24(s0)
    270c:	fff7c793          	not	a5,a5
    2710:	fec42703          	lw	a4,-20(s0)
    2714:	8ff9                	and	a5,a5,a4
    2716:	fef42623          	sw	a5,-20(s0)
    271a:	fd944683          	lbu	a3,-39(s0)
    271e:	fdb44783          	lbu	a5,-37(s0)
    2722:	ff678713          	addi	a4,a5,-10
    2726:	87ba                	mv	a5,a4
    2728:	0786                	slli	a5,a5,0x1
    272a:	97ba                	add	a5,a5,a4
    272c:	00f697b3          	sll	a5,a3,a5
    2730:	fef42423          	sw	a5,-24(s0)
    2734:	fec42703          	lw	a4,-20(s0)
    2738:	fe842783          	lw	a5,-24(s0)
    273c:	8fd9                	or	a5,a5,a4
    273e:	fef42623          	sw	a5,-20(s0)
    2742:	fdc42783          	lw	a5,-36(s0)
    2746:	fec42703          	lw	a4,-20(s0)
    274a:	c7d8                	sw	a4,12(a5)
    274c:	a085                	j	27ac <ADC_RegularChannelConfig+0xf6>
    274e:	fdc42783          	lw	a5,-36(s0)
    2752:	4b9c                	lw	a5,16(a5)
    2754:	fef42623          	sw	a5,-20(s0)
    2758:	fdb44703          	lbu	a4,-37(s0)
    275c:	87ba                	mv	a5,a4
    275e:	0786                	slli	a5,a5,0x1
    2760:	97ba                	add	a5,a5,a4
    2762:	471d                	li	a4,7
    2764:	00f717b3          	sll	a5,a4,a5
    2768:	fef42423          	sw	a5,-24(s0)
    276c:	fe842783          	lw	a5,-24(s0)
    2770:	fff7c793          	not	a5,a5
    2774:	fec42703          	lw	a4,-20(s0)
    2778:	8ff9                	and	a5,a5,a4
    277a:	fef42623          	sw	a5,-20(s0)
    277e:	fd944683          	lbu	a3,-39(s0)
    2782:	fdb44703          	lbu	a4,-37(s0)
    2786:	87ba                	mv	a5,a4
    2788:	0786                	slli	a5,a5,0x1
    278a:	97ba                	add	a5,a5,a4
    278c:	00f697b3          	sll	a5,a3,a5
    2790:	fef42423          	sw	a5,-24(s0)
    2794:	fec42703          	lw	a4,-20(s0)
    2798:	fe842783          	lw	a5,-24(s0)
    279c:	8fd9                	or	a5,a5,a4
    279e:	fef42623          	sw	a5,-20(s0)
    27a2:	fdc42783          	lw	a5,-36(s0)
    27a6:	fec42703          	lw	a4,-20(s0)
    27aa:	cb98                	sw	a4,16(a5)
    27ac:	fda44703          	lbu	a4,-38(s0)
    27b0:	4799                	li	a5,6
    27b2:	06e7e663          	bltu	a5,a4,281e <ADC_RegularChannelConfig+0x168>
    27b6:	fdc42783          	lw	a5,-36(s0)
    27ba:	5bdc                	lw	a5,52(a5)
    27bc:	fef42623          	sw	a5,-20(s0)
    27c0:	fda44783          	lbu	a5,-38(s0)
    27c4:	fff78713          	addi	a4,a5,-1
    27c8:	87ba                	mv	a5,a4
    27ca:	078a                	slli	a5,a5,0x2
    27cc:	97ba                	add	a5,a5,a4
    27ce:	477d                	li	a4,31
    27d0:	00f717b3          	sll	a5,a4,a5
    27d4:	fef42423          	sw	a5,-24(s0)
    27d8:	fe842783          	lw	a5,-24(s0)
    27dc:	fff7c793          	not	a5,a5
    27e0:	fec42703          	lw	a4,-20(s0)
    27e4:	8ff9                	and	a5,a5,a4
    27e6:	fef42623          	sw	a5,-20(s0)
    27ea:	fdb44683          	lbu	a3,-37(s0)
    27ee:	fda44783          	lbu	a5,-38(s0)
    27f2:	fff78713          	addi	a4,a5,-1
    27f6:	87ba                	mv	a5,a4
    27f8:	078a                	slli	a5,a5,0x2
    27fa:	97ba                	add	a5,a5,a4
    27fc:	00f697b3          	sll	a5,a3,a5
    2800:	fef42423          	sw	a5,-24(s0)
    2804:	fec42703          	lw	a4,-20(s0)
    2808:	fe842783          	lw	a5,-24(s0)
    280c:	8fd9                	or	a5,a5,a4
    280e:	fef42623          	sw	a5,-20(s0)
    2812:	fdc42783          	lw	a5,-36(s0)
    2816:	fec42703          	lw	a4,-20(s0)
    281a:	dbd8                	sw	a4,52(a5)
    281c:	a8e9                	j	28f6 <ADC_RegularChannelConfig+0x240>
    281e:	fda44703          	lbu	a4,-38(s0)
    2822:	47b1                	li	a5,12
    2824:	06e7e663          	bltu	a5,a4,2890 <ADC_RegularChannelConfig+0x1da>
    2828:	fdc42783          	lw	a5,-36(s0)
    282c:	5b9c                	lw	a5,48(a5)
    282e:	fef42623          	sw	a5,-20(s0)
    2832:	fda44783          	lbu	a5,-38(s0)
    2836:	ff978713          	addi	a4,a5,-7
    283a:	87ba                	mv	a5,a4
    283c:	078a                	slli	a5,a5,0x2
    283e:	97ba                	add	a5,a5,a4
    2840:	477d                	li	a4,31
    2842:	00f717b3          	sll	a5,a4,a5
    2846:	fef42423          	sw	a5,-24(s0)
    284a:	fe842783          	lw	a5,-24(s0)
    284e:	fff7c793          	not	a5,a5
    2852:	fec42703          	lw	a4,-20(s0)
    2856:	8ff9                	and	a5,a5,a4
    2858:	fef42623          	sw	a5,-20(s0)
    285c:	fdb44683          	lbu	a3,-37(s0)
    2860:	fda44783          	lbu	a5,-38(s0)
    2864:	ff978713          	addi	a4,a5,-7
    2868:	87ba                	mv	a5,a4
    286a:	078a                	slli	a5,a5,0x2
    286c:	97ba                	add	a5,a5,a4
    286e:	00f697b3          	sll	a5,a3,a5
    2872:	fef42423          	sw	a5,-24(s0)
    2876:	fec42703          	lw	a4,-20(s0)
    287a:	fe842783          	lw	a5,-24(s0)
    287e:	8fd9                	or	a5,a5,a4
    2880:	fef42623          	sw	a5,-20(s0)
    2884:	fdc42783          	lw	a5,-36(s0)
    2888:	fec42703          	lw	a4,-20(s0)
    288c:	db98                	sw	a4,48(a5)
    288e:	a0a5                	j	28f6 <ADC_RegularChannelConfig+0x240>
    2890:	fdc42783          	lw	a5,-36(s0)
    2894:	57dc                	lw	a5,44(a5)
    2896:	fef42623          	sw	a5,-20(s0)
    289a:	fda44783          	lbu	a5,-38(s0)
    289e:	ff378713          	addi	a4,a5,-13
    28a2:	87ba                	mv	a5,a4
    28a4:	078a                	slli	a5,a5,0x2
    28a6:	97ba                	add	a5,a5,a4
    28a8:	477d                	li	a4,31
    28aa:	00f717b3          	sll	a5,a4,a5
    28ae:	fef42423          	sw	a5,-24(s0)
    28b2:	fe842783          	lw	a5,-24(s0)
    28b6:	fff7c793          	not	a5,a5
    28ba:	fec42703          	lw	a4,-20(s0)
    28be:	8ff9                	and	a5,a5,a4
    28c0:	fef42623          	sw	a5,-20(s0)
    28c4:	fdb44683          	lbu	a3,-37(s0)
    28c8:	fda44783          	lbu	a5,-38(s0)
    28cc:	ff378713          	addi	a4,a5,-13
    28d0:	87ba                	mv	a5,a4
    28d2:	078a                	slli	a5,a5,0x2
    28d4:	97ba                	add	a5,a5,a4
    28d6:	00f697b3          	sll	a5,a3,a5
    28da:	fef42423          	sw	a5,-24(s0)
    28de:	fec42703          	lw	a4,-20(s0)
    28e2:	fe842783          	lw	a5,-24(s0)
    28e6:	8fd9                	or	a5,a5,a4
    28e8:	fef42623          	sw	a5,-20(s0)
    28ec:	fdc42783          	lw	a5,-36(s0)
    28f0:	fec42703          	lw	a4,-20(s0)
    28f4:	d7d8                	sw	a4,44(a5)
    28f6:	0001                	nop
    28f8:	5432                	lw	s0,44(sp)
    28fa:	6145                	addi	sp,sp,48
    28fc:	8082                	ret

000028fe <Get_CalibrationValue>:
    28fe:	7139                	addi	sp,sp,-64
    2900:	de06                	sw	ra,60(sp)
    2902:	dc22                	sw	s0,56(sp)
    2904:	0080                	addi	s0,sp,64
    2906:	fca42623          	sw	a0,-52(s0)
    290a:	fe0407a3          	sb	zero,-17(s0)
    290e:	a8b1                	j	296a <Get_CalibrationValue+0x6c>
    2910:	fcc42503          	lw	a0,-52(s0)
    2914:	cbbff0ef          	jal	ra,25ce <ADC_ResetCalibration>
    2918:	0001                	nop
    291a:	fcc42503          	lw	a0,-52(s0)
    291e:	cd3ff0ef          	jal	ra,25f0 <ADC_GetResetCalibrationStatus>
    2922:	87aa                	mv	a5,a0
    2924:	fbfd                	bnez	a5,291a <Get_CalibrationValue+0x1c>
    2926:	fcc42503          	lw	a0,-52(s0)
    292a:	cf7ff0ef          	jal	ra,2620 <ADC_StartCalibration>
    292e:	0001                	nop
    2930:	fcc42503          	lw	a0,-52(s0)
    2934:	3339                	jal	2642 <ADC_GetCalibrationStatus>
    2936:	87aa                	mv	a5,a0
    2938:	ffe5                	bnez	a5,2930 <Get_CalibrationValue+0x32>
    293a:	fcc42783          	lw	a5,-52(s0)
    293e:	47f8                	lw	a4,76(a5)
    2940:	fef44783          	lbu	a5,-17(s0)
    2944:	0ff7f793          	andi	a5,a5,255
    2948:	0742                	slli	a4,a4,0x10
    294a:	8341                	srli	a4,a4,0x10
    294c:	0786                	slli	a5,a5,0x1
    294e:	ff040693          	addi	a3,s0,-16
    2952:	97b6                	add	a5,a5,a3
    2954:	fee79423          	sh	a4,-24(a5)
    2958:	fef44783          	lbu	a5,-17(s0)
    295c:	0ff7f793          	andi	a5,a5,255
    2960:	0785                	addi	a5,a5,1
    2962:	0ff7f793          	andi	a5,a5,255
    2966:	fef407a3          	sb	a5,-17(s0)
    296a:	fef44783          	lbu	a5,-17(s0)
    296e:	0ff7f713          	andi	a4,a5,255
    2972:	47a5                	li	a5,9
    2974:	f8e7fee3          	bgeu	a5,a4,2910 <Get_CalibrationValue+0x12>
    2978:	fe0407a3          	sb	zero,-17(s0)
    297c:	a0f1                	j	2a48 <Get_CalibrationValue+0x14a>
    297e:	fe040723          	sb	zero,-18(s0)
    2982:	a05d                	j	2a28 <Get_CalibrationValue+0x12a>
    2984:	fee44783          	lbu	a5,-18(s0)
    2988:	0ff7f793          	andi	a5,a5,255
    298c:	0786                	slli	a5,a5,0x1
    298e:	ff040713          	addi	a4,s0,-16
    2992:	97ba                	add	a5,a5,a4
    2994:	fe87d703          	lhu	a4,-24(a5)
    2998:	fee44783          	lbu	a5,-18(s0)
    299c:	0ff7f793          	andi	a5,a5,255
    29a0:	0785                	addi	a5,a5,1
    29a2:	0786                	slli	a5,a5,0x1
    29a4:	ff040693          	addi	a3,s0,-16
    29a8:	97b6                	add	a5,a5,a3
    29aa:	fe87d783          	lhu	a5,-24(a5)
    29ae:	06e7f463          	bgeu	a5,a4,2a16 <Get_CalibrationValue+0x118>
    29b2:	fee44783          	lbu	a5,-18(s0)
    29b6:	0ff7f793          	andi	a5,a5,255
    29ba:	0786                	slli	a5,a5,0x1
    29bc:	ff040713          	addi	a4,s0,-16
    29c0:	97ba                	add	a5,a5,a4
    29c2:	fe87d783          	lhu	a5,-24(a5)
    29c6:	fcf41b23          	sh	a5,-42(s0)
    29ca:	fee44783          	lbu	a5,-18(s0)
    29ce:	0ff7f793          	andi	a5,a5,255
    29d2:	0785                	addi	a5,a5,1
    29d4:	fee44703          	lbu	a4,-18(s0)
    29d8:	0ff77713          	andi	a4,a4,255
    29dc:	86ba                	mv	a3,a4
    29de:	0786                	slli	a5,a5,0x1
    29e0:	ff040713          	addi	a4,s0,-16
    29e4:	97ba                	add	a5,a5,a4
    29e6:	fe87d703          	lhu	a4,-24(a5)
    29ea:	00169793          	slli	a5,a3,0x1
    29ee:	ff040693          	addi	a3,s0,-16
    29f2:	97b6                	add	a5,a5,a3
    29f4:	fee79423          	sh	a4,-24(a5)
    29f8:	fee44783          	lbu	a5,-18(s0)
    29fc:	0ff7f793          	andi	a5,a5,255
    2a00:	0785                	addi	a5,a5,1
    2a02:	fd645703          	lhu	a4,-42(s0)
    2a06:	0742                	slli	a4,a4,0x10
    2a08:	8341                	srli	a4,a4,0x10
    2a0a:	0786                	slli	a5,a5,0x1
    2a0c:	ff040693          	addi	a3,s0,-16
    2a10:	97b6                	add	a5,a5,a3
    2a12:	fee79423          	sh	a4,-24(a5)
    2a16:	fee44783          	lbu	a5,-18(s0)
    2a1a:	0ff7f793          	andi	a5,a5,255
    2a1e:	0785                	addi	a5,a5,1
    2a20:	0ff7f793          	andi	a5,a5,255
    2a24:	fef40723          	sb	a5,-18(s0)
    2a28:	fee44783          	lbu	a5,-18(s0)
    2a2c:	0ff7f713          	andi	a4,a5,255
    2a30:	47a1                	li	a5,8
    2a32:	f4e7f9e3          	bgeu	a5,a4,2984 <Get_CalibrationValue+0x86>
    2a36:	fef44783          	lbu	a5,-17(s0)
    2a3a:	0ff7f793          	andi	a5,a5,255
    2a3e:	0785                	addi	a5,a5,1
    2a40:	0ff7f793          	andi	a5,a5,255
    2a44:	fef407a3          	sb	a5,-17(s0)
    2a48:	fef44783          	lbu	a5,-17(s0)
    2a4c:	0ff7f713          	andi	a4,a5,255
    2a50:	47a5                	li	a5,9
    2a52:	f2e7f6e3          	bgeu	a5,a4,297e <Get_CalibrationValue+0x80>
    2a56:	fc041b23          	sh	zero,-42(s0)
    2a5a:	fe0407a3          	sb	zero,-17(s0)
    2a5e:	a835                	j	2a9a <Get_CalibrationValue+0x19c>
    2a60:	fef44783          	lbu	a5,-17(s0)
    2a64:	0ff7f793          	andi	a5,a5,255
    2a68:	0789                	addi	a5,a5,2
    2a6a:	0786                	slli	a5,a5,0x1
    2a6c:	ff040713          	addi	a4,s0,-16
    2a70:	97ba                	add	a5,a5,a4
    2a72:	fe87d703          	lhu	a4,-24(a5)
    2a76:	fd645783          	lhu	a5,-42(s0)
    2a7a:	07c2                	slli	a5,a5,0x10
    2a7c:	83c1                	srli	a5,a5,0x10
    2a7e:	97ba                	add	a5,a5,a4
    2a80:	07c2                	slli	a5,a5,0x10
    2a82:	83c1                	srli	a5,a5,0x10
    2a84:	fcf41b23          	sh	a5,-42(s0)
    2a88:	fef44783          	lbu	a5,-17(s0)
    2a8c:	0ff7f793          	andi	a5,a5,255
    2a90:	0785                	addi	a5,a5,1
    2a92:	0ff7f793          	andi	a5,a5,255
    2a96:	fef407a3          	sb	a5,-17(s0)
    2a9a:	fef44783          	lbu	a5,-17(s0)
    2a9e:	0ff7f713          	andi	a4,a5,255
    2aa2:	4795                	li	a5,5
    2aa4:	fae7fee3          	bgeu	a5,a4,2a60 <Get_CalibrationValue+0x162>
    2aa8:	fd645783          	lhu	a5,-42(s0)
    2aac:	01079713          	slli	a4,a5,0x10
    2ab0:	8341                	srli	a4,a4,0x10
    2ab2:	4799                	li	a5,6
    2ab4:	02f757b3          	divu	a5,a4,a5
    2ab8:	01079713          	slli	a4,a5,0x10
    2abc:	8341                	srli	a4,a4,0x10
    2abe:	fd645783          	lhu	a5,-42(s0)
    2ac2:	01079693          	slli	a3,a5,0x10
    2ac6:	82c1                	srli	a3,a3,0x10
    2ac8:	4799                	li	a5,6
    2aca:	02f6f7b3          	remu	a5,a3,a5
    2ace:	01079693          	slli	a3,a5,0x10
    2ad2:	82c1                	srli	a3,a3,0x10
    2ad4:	478d                	li	a5,3
    2ad6:	02f6d7b3          	divu	a5,a3,a5
    2ada:	07c2                	slli	a5,a5,0x10
    2adc:	83c1                	srli	a5,a5,0x10
    2ade:	97ba                	add	a5,a5,a4
    2ae0:	07c2                	slli	a5,a5,0x10
    2ae2:	83c1                	srli	a5,a5,0x10
    2ae4:	fcf41b23          	sh	a5,-42(s0)
    2ae8:	fd645783          	lhu	a5,-42(s0)
    2aec:	07c2                	slli	a5,a5,0x10
    2aee:	83c1                	srli	a5,a5,0x10
    2af0:	6705                	lui	a4,0x1
    2af2:	80070713          	addi	a4,a4,-2048 # 800 <__stack_size>
    2af6:	40f707b3          	sub	a5,a4,a5
    2afa:	07c2                	slli	a5,a5,0x10
    2afc:	83c1                	srli	a5,a5,0x10
    2afe:	07c2                	slli	a5,a5,0x10
    2b00:	87c1                	srai	a5,a5,0x10
    2b02:	853e                	mv	a0,a5
    2b04:	50f2                	lw	ra,60(sp)
    2b06:	5462                	lw	s0,56(sp)
    2b08:	6121                	addi	sp,sp,64
    2b0a:	8082                	ret

00002b0c <DBGMCU_GetCHIPID>:
    2b0c:	1141                	addi	sp,sp,-16
    2b0e:	c622                	sw	s0,12(sp)
    2b10:	0800                	addi	s0,sp,16
    2b12:	1ffff7b7          	lui	a5,0x1ffff
    2b16:	70478793          	addi	a5,a5,1796 # 1ffff704 <_data_lma+0x1fffa48c>
    2b1a:	439c                	lw	a5,0(a5)
    2b1c:	853e                	mv	a0,a5
    2b1e:	4432                	lw	s0,12(sp)
    2b20:	0141                	addi	sp,sp,16
    2b22:	8082                	ret

00002b24 <DMA_DeInit>:
    2b24:	1101                	addi	sp,sp,-32
    2b26:	ce22                	sw	s0,28(sp)
    2b28:	1000                	addi	s0,sp,32
    2b2a:	fea42623          	sw	a0,-20(s0)
    2b2e:	fec42783          	lw	a5,-20(s0)
    2b32:	4398                	lw	a4,0(a5)
    2b34:	67c1                	lui	a5,0x10
    2b36:	17f9                	addi	a5,a5,-2
    2b38:	8f7d                	and	a4,a4,a5
    2b3a:	fec42783          	lw	a5,-20(s0)
    2b3e:	c398                	sw	a4,0(a5)
    2b40:	fec42783          	lw	a5,-20(s0)
    2b44:	0007a023          	sw	zero,0(a5) # 10000 <_data_lma+0xad88>
    2b48:	fec42783          	lw	a5,-20(s0)
    2b4c:	0007a223          	sw	zero,4(a5)
    2b50:	fec42783          	lw	a5,-20(s0)
    2b54:	0007a423          	sw	zero,8(a5)
    2b58:	fec42783          	lw	a5,-20(s0)
    2b5c:	0007a623          	sw	zero,12(a5)
    2b60:	fec42703          	lw	a4,-20(s0)
    2b64:	400207b7          	lui	a5,0x40020
    2b68:	07a1                	addi	a5,a5,8
    2b6a:	00f71b63          	bne	a4,a5,2b80 <DMA_DeInit+0x5c>
    2b6e:	400207b7          	lui	a5,0x40020
    2b72:	43d8                	lw	a4,4(a5)
    2b74:	400207b7          	lui	a5,0x40020
    2b78:	00f76713          	ori	a4,a4,15
    2b7c:	c3d8                	sw	a4,4(a5)
    2b7e:	ac45                	j	2e2e <DMA_DeInit+0x30a>
    2b80:	fec42703          	lw	a4,-20(s0)
    2b84:	400207b7          	lui	a5,0x40020
    2b88:	07f1                	addi	a5,a5,28
    2b8a:	00f71b63          	bne	a4,a5,2ba0 <DMA_DeInit+0x7c>
    2b8e:	400207b7          	lui	a5,0x40020
    2b92:	43d8                	lw	a4,4(a5)
    2b94:	400207b7          	lui	a5,0x40020
    2b98:	0f076713          	ori	a4,a4,240
    2b9c:	c3d8                	sw	a4,4(a5)
    2b9e:	ac41                	j	2e2e <DMA_DeInit+0x30a>
    2ba0:	fec42703          	lw	a4,-20(s0)
    2ba4:	400207b7          	lui	a5,0x40020
    2ba8:	03078793          	addi	a5,a5,48 # 40020030 <_eusrstack+0x20018030>
    2bac:	00f71d63          	bne	a4,a5,2bc6 <DMA_DeInit+0xa2>
    2bb0:	400207b7          	lui	a5,0x40020
    2bb4:	43d4                	lw	a3,4(a5)
    2bb6:	400207b7          	lui	a5,0x40020
    2bba:	6705                	lui	a4,0x1
    2bbc:	f0070713          	addi	a4,a4,-256 # f00 <USBHS_IRQHandler+0x554>
    2bc0:	8f55                	or	a4,a4,a3
    2bc2:	c3d8                	sw	a4,4(a5)
    2bc4:	a4ad                	j	2e2e <DMA_DeInit+0x30a>
    2bc6:	fec42703          	lw	a4,-20(s0)
    2bca:	400207b7          	lui	a5,0x40020
    2bce:	04478793          	addi	a5,a5,68 # 40020044 <_eusrstack+0x20018044>
    2bd2:	00f71b63          	bne	a4,a5,2be8 <DMA_DeInit+0xc4>
    2bd6:	400207b7          	lui	a5,0x40020
    2bda:	43d4                	lw	a3,4(a5)
    2bdc:	400207b7          	lui	a5,0x40020
    2be0:	673d                	lui	a4,0xf
    2be2:	8f55                	or	a4,a4,a3
    2be4:	c3d8                	sw	a4,4(a5)
    2be6:	a4a1                	j	2e2e <DMA_DeInit+0x30a>
    2be8:	fec42703          	lw	a4,-20(s0)
    2bec:	400207b7          	lui	a5,0x40020
    2bf0:	05878793          	addi	a5,a5,88 # 40020058 <_eusrstack+0x20018058>
    2bf4:	00f71c63          	bne	a4,a5,2c0c <DMA_DeInit+0xe8>
    2bf8:	400207b7          	lui	a5,0x40020
    2bfc:	43d4                	lw	a3,4(a5)
    2bfe:	400207b7          	lui	a5,0x40020
    2c02:	000f0737          	lui	a4,0xf0
    2c06:	8f55                	or	a4,a4,a3
    2c08:	c3d8                	sw	a4,4(a5)
    2c0a:	a415                	j	2e2e <DMA_DeInit+0x30a>
    2c0c:	fec42703          	lw	a4,-20(s0)
    2c10:	400207b7          	lui	a5,0x40020
    2c14:	06c78793          	addi	a5,a5,108 # 4002006c <_eusrstack+0x2001806c>
    2c18:	00f71c63          	bne	a4,a5,2c30 <DMA_DeInit+0x10c>
    2c1c:	400207b7          	lui	a5,0x40020
    2c20:	43d4                	lw	a3,4(a5)
    2c22:	400207b7          	lui	a5,0x40020
    2c26:	00f00737          	lui	a4,0xf00
    2c2a:	8f55                	or	a4,a4,a3
    2c2c:	c3d8                	sw	a4,4(a5)
    2c2e:	a401                	j	2e2e <DMA_DeInit+0x30a>
    2c30:	fec42703          	lw	a4,-20(s0)
    2c34:	400207b7          	lui	a5,0x40020
    2c38:	08078793          	addi	a5,a5,128 # 40020080 <_eusrstack+0x20018080>
    2c3c:	00f71c63          	bne	a4,a5,2c54 <DMA_DeInit+0x130>
    2c40:	400207b7          	lui	a5,0x40020
    2c44:	43d4                	lw	a3,4(a5)
    2c46:	400207b7          	lui	a5,0x40020
    2c4a:	0f000737          	lui	a4,0xf000
    2c4e:	8f55                	or	a4,a4,a3
    2c50:	c3d8                	sw	a4,4(a5)
    2c52:	aaf1                	j	2e2e <DMA_DeInit+0x30a>
    2c54:	fec42703          	lw	a4,-20(s0)
    2c58:	400207b7          	lui	a5,0x40020
    2c5c:	40878793          	addi	a5,a5,1032 # 40020408 <_eusrstack+0x20018408>
    2c60:	00f71f63          	bne	a4,a5,2c7e <DMA_DeInit+0x15a>
    2c64:	400207b7          	lui	a5,0x40020
    2c68:	40078793          	addi	a5,a5,1024 # 40020400 <_eusrstack+0x20018400>
    2c6c:	43d8                	lw	a4,4(a5)
    2c6e:	400207b7          	lui	a5,0x40020
    2c72:	40078793          	addi	a5,a5,1024 # 40020400 <_eusrstack+0x20018400>
    2c76:	00f76713          	ori	a4,a4,15
    2c7a:	c3d8                	sw	a4,4(a5)
    2c7c:	aa4d                	j	2e2e <DMA_DeInit+0x30a>
    2c7e:	fec42703          	lw	a4,-20(s0)
    2c82:	400207b7          	lui	a5,0x40020
    2c86:	41c78793          	addi	a5,a5,1052 # 4002041c <_eusrstack+0x2001841c>
    2c8a:	00f71f63          	bne	a4,a5,2ca8 <DMA_DeInit+0x184>
    2c8e:	400207b7          	lui	a5,0x40020
    2c92:	40078793          	addi	a5,a5,1024 # 40020400 <_eusrstack+0x20018400>
    2c96:	43d8                	lw	a4,4(a5)
    2c98:	400207b7          	lui	a5,0x40020
    2c9c:	40078793          	addi	a5,a5,1024 # 40020400 <_eusrstack+0x20018400>
    2ca0:	0f076713          	ori	a4,a4,240
    2ca4:	c3d8                	sw	a4,4(a5)
    2ca6:	a261                	j	2e2e <DMA_DeInit+0x30a>
    2ca8:	fec42703          	lw	a4,-20(s0)
    2cac:	400207b7          	lui	a5,0x40020
    2cb0:	43078793          	addi	a5,a5,1072 # 40020430 <_eusrstack+0x20018430>
    2cb4:	02f71163          	bne	a4,a5,2cd6 <DMA_DeInit+0x1b2>
    2cb8:	400207b7          	lui	a5,0x40020
    2cbc:	40078793          	addi	a5,a5,1024 # 40020400 <_eusrstack+0x20018400>
    2cc0:	43d4                	lw	a3,4(a5)
    2cc2:	400207b7          	lui	a5,0x40020
    2cc6:	40078793          	addi	a5,a5,1024 # 40020400 <_eusrstack+0x20018400>
    2cca:	6705                	lui	a4,0x1
    2ccc:	f0070713          	addi	a4,a4,-256 # f00 <USBHS_IRQHandler+0x554>
    2cd0:	8f55                	or	a4,a4,a3
    2cd2:	c3d8                	sw	a4,4(a5)
    2cd4:	aaa9                	j	2e2e <DMA_DeInit+0x30a>
    2cd6:	fec42703          	lw	a4,-20(s0)
    2cda:	400207b7          	lui	a5,0x40020
    2cde:	44478793          	addi	a5,a5,1092 # 40020444 <_eusrstack+0x20018444>
    2ce2:	00f71f63          	bne	a4,a5,2d00 <DMA_DeInit+0x1dc>
    2ce6:	400207b7          	lui	a5,0x40020
    2cea:	40078793          	addi	a5,a5,1024 # 40020400 <_eusrstack+0x20018400>
    2cee:	43d4                	lw	a3,4(a5)
    2cf0:	400207b7          	lui	a5,0x40020
    2cf4:	40078793          	addi	a5,a5,1024 # 40020400 <_eusrstack+0x20018400>
    2cf8:	673d                	lui	a4,0xf
    2cfa:	8f55                	or	a4,a4,a3
    2cfc:	c3d8                	sw	a4,4(a5)
    2cfe:	aa05                	j	2e2e <DMA_DeInit+0x30a>
    2d00:	fec42703          	lw	a4,-20(s0)
    2d04:	400207b7          	lui	a5,0x40020
    2d08:	45878793          	addi	a5,a5,1112 # 40020458 <_eusrstack+0x20018458>
    2d0c:	02f71063          	bne	a4,a5,2d2c <DMA_DeInit+0x208>
    2d10:	400207b7          	lui	a5,0x40020
    2d14:	40078793          	addi	a5,a5,1024 # 40020400 <_eusrstack+0x20018400>
    2d18:	43d4                	lw	a3,4(a5)
    2d1a:	400207b7          	lui	a5,0x40020
    2d1e:	40078793          	addi	a5,a5,1024 # 40020400 <_eusrstack+0x20018400>
    2d22:	000f0737          	lui	a4,0xf0
    2d26:	8f55                	or	a4,a4,a3
    2d28:	c3d8                	sw	a4,4(a5)
    2d2a:	a211                	j	2e2e <DMA_DeInit+0x30a>
    2d2c:	fec42703          	lw	a4,-20(s0)
    2d30:	400207b7          	lui	a5,0x40020
    2d34:	46c78793          	addi	a5,a5,1132 # 4002046c <_eusrstack+0x2001846c>
    2d38:	02f71063          	bne	a4,a5,2d58 <DMA_DeInit+0x234>
    2d3c:	400207b7          	lui	a5,0x40020
    2d40:	40078793          	addi	a5,a5,1024 # 40020400 <_eusrstack+0x20018400>
    2d44:	43d4                	lw	a3,4(a5)
    2d46:	400207b7          	lui	a5,0x40020
    2d4a:	40078793          	addi	a5,a5,1024 # 40020400 <_eusrstack+0x20018400>
    2d4e:	00f00737          	lui	a4,0xf00
    2d52:	8f55                	or	a4,a4,a3
    2d54:	c3d8                	sw	a4,4(a5)
    2d56:	a8e1                	j	2e2e <DMA_DeInit+0x30a>
    2d58:	fec42703          	lw	a4,-20(s0)
    2d5c:	400207b7          	lui	a5,0x40020
    2d60:	48078793          	addi	a5,a5,1152 # 40020480 <_eusrstack+0x20018480>
    2d64:	02f71063          	bne	a4,a5,2d84 <DMA_DeInit+0x260>
    2d68:	400207b7          	lui	a5,0x40020
    2d6c:	40078793          	addi	a5,a5,1024 # 40020400 <_eusrstack+0x20018400>
    2d70:	43d4                	lw	a3,4(a5)
    2d72:	400207b7          	lui	a5,0x40020
    2d76:	40078793          	addi	a5,a5,1024 # 40020400 <_eusrstack+0x20018400>
    2d7a:	0f000737          	lui	a4,0xf000
    2d7e:	8f55                	or	a4,a4,a3
    2d80:	c3d8                	sw	a4,4(a5)
    2d82:	a075                	j	2e2e <DMA_DeInit+0x30a>
    2d84:	fec42703          	lw	a4,-20(s0)
    2d88:	400207b7          	lui	a5,0x40020
    2d8c:	49078793          	addi	a5,a5,1168 # 40020490 <_eusrstack+0x20018490>
    2d90:	00f71f63          	bne	a4,a5,2dae <DMA_DeInit+0x28a>
    2d94:	400207b7          	lui	a5,0x40020
    2d98:	4d078793          	addi	a5,a5,1232 # 400204d0 <_eusrstack+0x200184d0>
    2d9c:	43d8                	lw	a4,4(a5)
    2d9e:	400207b7          	lui	a5,0x40020
    2da2:	4d078793          	addi	a5,a5,1232 # 400204d0 <_eusrstack+0x200184d0>
    2da6:	00f76713          	ori	a4,a4,15
    2daa:	c3d8                	sw	a4,4(a5)
    2dac:	a049                	j	2e2e <DMA_DeInit+0x30a>
    2dae:	fec42703          	lw	a4,-20(s0)
    2db2:	400207b7          	lui	a5,0x40020
    2db6:	4a078793          	addi	a5,a5,1184 # 400204a0 <_eusrstack+0x200184a0>
    2dba:	00f71f63          	bne	a4,a5,2dd8 <DMA_DeInit+0x2b4>
    2dbe:	400207b7          	lui	a5,0x40020
    2dc2:	4d078793          	addi	a5,a5,1232 # 400204d0 <_eusrstack+0x200184d0>
    2dc6:	43d8                	lw	a4,4(a5)
    2dc8:	400207b7          	lui	a5,0x40020
    2dcc:	4d078793          	addi	a5,a5,1232 # 400204d0 <_eusrstack+0x200184d0>
    2dd0:	0f076713          	ori	a4,a4,240
    2dd4:	c3d8                	sw	a4,4(a5)
    2dd6:	a8a1                	j	2e2e <DMA_DeInit+0x30a>
    2dd8:	fec42703          	lw	a4,-20(s0)
    2ddc:	400207b7          	lui	a5,0x40020
    2de0:	4b078793          	addi	a5,a5,1200 # 400204b0 <_eusrstack+0x200184b0>
    2de4:	02f71163          	bne	a4,a5,2e06 <DMA_DeInit+0x2e2>
    2de8:	400207b7          	lui	a5,0x40020
    2dec:	4d078793          	addi	a5,a5,1232 # 400204d0 <_eusrstack+0x200184d0>
    2df0:	43d4                	lw	a3,4(a5)
    2df2:	400207b7          	lui	a5,0x40020
    2df6:	4d078793          	addi	a5,a5,1232 # 400204d0 <_eusrstack+0x200184d0>
    2dfa:	6705                	lui	a4,0x1
    2dfc:	f0070713          	addi	a4,a4,-256 # f00 <USBHS_IRQHandler+0x554>
    2e00:	8f55                	or	a4,a4,a3
    2e02:	c3d8                	sw	a4,4(a5)
    2e04:	a02d                	j	2e2e <DMA_DeInit+0x30a>
    2e06:	fec42703          	lw	a4,-20(s0)
    2e0a:	400207b7          	lui	a5,0x40020
    2e0e:	4c078793          	addi	a5,a5,1216 # 400204c0 <_eusrstack+0x200184c0>
    2e12:	00f71e63          	bne	a4,a5,2e2e <DMA_DeInit+0x30a>
    2e16:	400207b7          	lui	a5,0x40020
    2e1a:	4d078793          	addi	a5,a5,1232 # 400204d0 <_eusrstack+0x200184d0>
    2e1e:	43d4                	lw	a3,4(a5)
    2e20:	400207b7          	lui	a5,0x40020
    2e24:	4d078793          	addi	a5,a5,1232 # 400204d0 <_eusrstack+0x200184d0>
    2e28:	673d                	lui	a4,0xf
    2e2a:	8f55                	or	a4,a4,a3
    2e2c:	c3d8                	sw	a4,4(a5)
    2e2e:	0001                	nop
    2e30:	4472                	lw	s0,28(sp)
    2e32:	6105                	addi	sp,sp,32
    2e34:	8082                	ret

00002e36 <DMA_Init>:
    2e36:	7179                	addi	sp,sp,-48
    2e38:	d622                	sw	s0,44(sp)
    2e3a:	1800                	addi	s0,sp,48
    2e3c:	fca42e23          	sw	a0,-36(s0)
    2e40:	fcb42c23          	sw	a1,-40(s0)
    2e44:	fe042623          	sw	zero,-20(s0)
    2e48:	fdc42783          	lw	a5,-36(s0)
    2e4c:	439c                	lw	a5,0(a5)
    2e4e:	fef42623          	sw	a5,-20(s0)
    2e52:	fec42703          	lw	a4,-20(s0)
    2e56:	77e1                	lui	a5,0xffff8
    2e58:	07bd                	addi	a5,a5,15
    2e5a:	8ff9                	and	a5,a5,a4
    2e5c:	fef42623          	sw	a5,-20(s0)
    2e60:	fd842783          	lw	a5,-40(s0)
    2e64:	4798                	lw	a4,8(a5)
    2e66:	fd842783          	lw	a5,-40(s0)
    2e6a:	539c                	lw	a5,32(a5)
    2e6c:	8f5d                	or	a4,a4,a5
    2e6e:	fd842783          	lw	a5,-40(s0)
    2e72:	4b9c                	lw	a5,16(a5)
    2e74:	8f5d                	or	a4,a4,a5
    2e76:	fd842783          	lw	a5,-40(s0)
    2e7a:	4bdc                	lw	a5,20(a5)
    2e7c:	8f5d                	or	a4,a4,a5
    2e7e:	fd842783          	lw	a5,-40(s0)
    2e82:	4f9c                	lw	a5,24(a5)
    2e84:	8f5d                	or	a4,a4,a5
    2e86:	fd842783          	lw	a5,-40(s0)
    2e8a:	4fdc                	lw	a5,28(a5)
    2e8c:	8f5d                	or	a4,a4,a5
    2e8e:	fd842783          	lw	a5,-40(s0)
    2e92:	53dc                	lw	a5,36(a5)
    2e94:	8f5d                	or	a4,a4,a5
    2e96:	fd842783          	lw	a5,-40(s0)
    2e9a:	579c                	lw	a5,40(a5)
    2e9c:	8fd9                	or	a5,a5,a4
    2e9e:	fec42703          	lw	a4,-20(s0)
    2ea2:	8fd9                	or	a5,a5,a4
    2ea4:	fef42623          	sw	a5,-20(s0)
    2ea8:	fdc42783          	lw	a5,-36(s0)
    2eac:	fec42703          	lw	a4,-20(s0)
    2eb0:	c398                	sw	a4,0(a5)
    2eb2:	fd842783          	lw	a5,-40(s0)
    2eb6:	47d8                	lw	a4,12(a5)
    2eb8:	fdc42783          	lw	a5,-36(s0)
    2ebc:	c3d8                	sw	a4,4(a5)
    2ebe:	fd842783          	lw	a5,-40(s0)
    2ec2:	4398                	lw	a4,0(a5)
    2ec4:	fdc42783          	lw	a5,-36(s0)
    2ec8:	c798                	sw	a4,8(a5)
    2eca:	fd842783          	lw	a5,-40(s0)
    2ece:	43d8                	lw	a4,4(a5)
    2ed0:	fdc42783          	lw	a5,-36(s0)
    2ed4:	c7d8                	sw	a4,12(a5)
    2ed6:	0001                	nop
    2ed8:	5432                	lw	s0,44(sp)
    2eda:	6145                	addi	sp,sp,48
    2edc:	8082                	ret

00002ede <DMA_Cmd>:
    2ede:	1101                	addi	sp,sp,-32
    2ee0:	ce22                	sw	s0,28(sp)
    2ee2:	1000                	addi	s0,sp,32
    2ee4:	fea42623          	sw	a0,-20(s0)
    2ee8:	feb42423          	sw	a1,-24(s0)
    2eec:	fe842783          	lw	a5,-24(s0)
    2ef0:	cb91                	beqz	a5,2f04 <DMA_Cmd+0x26>
    2ef2:	fec42783          	lw	a5,-20(s0)
    2ef6:	439c                	lw	a5,0(a5)
    2ef8:	0017e713          	ori	a4,a5,1
    2efc:	fec42783          	lw	a5,-20(s0)
    2f00:	c398                	sw	a4,0(a5)
    2f02:	a811                	j	2f16 <DMA_Cmd+0x38>
    2f04:	fec42783          	lw	a5,-20(s0)
    2f08:	4398                	lw	a4,0(a5)
    2f0a:	67c1                	lui	a5,0x10
    2f0c:	17f9                	addi	a5,a5,-2
    2f0e:	8f7d                	and	a4,a4,a5
    2f10:	fec42783          	lw	a5,-20(s0)
    2f14:	c398                	sw	a4,0(a5)
    2f16:	0001                	nop
    2f18:	4472                	lw	s0,28(sp)
    2f1a:	6105                	addi	sp,sp,32
    2f1c:	8082                	ret

00002f1e <EXTI_Init>:
    2f1e:	7179                	addi	sp,sp,-48
    2f20:	d622                	sw	s0,44(sp)
    2f22:	1800                	addi	s0,sp,48
    2f24:	fca42e23          	sw	a0,-36(s0)
    2f28:	fe042623          	sw	zero,-20(s0)
    2f2c:	400107b7          	lui	a5,0x40010
    2f30:	40078793          	addi	a5,a5,1024 # 40010400 <_eusrstack+0x20008400>
    2f34:	fef42623          	sw	a5,-20(s0)
    2f38:	fdc42783          	lw	a5,-36(s0)
    2f3c:	47dc                	lw	a5,12(a5)
    2f3e:	12078063          	beqz	a5,305e <EXTI_Init+0x140>
    2f42:	400107b7          	lui	a5,0x40010
    2f46:	40078793          	addi	a5,a5,1024 # 40010400 <_eusrstack+0x20008400>
    2f4a:	4394                	lw	a3,0(a5)
    2f4c:	fdc42783          	lw	a5,-36(s0)
    2f50:	439c                	lw	a5,0(a5)
    2f52:	fff7c713          	not	a4,a5
    2f56:	400107b7          	lui	a5,0x40010
    2f5a:	40078793          	addi	a5,a5,1024 # 40010400 <_eusrstack+0x20008400>
    2f5e:	8f75                	and	a4,a4,a3
    2f60:	c398                	sw	a4,0(a5)
    2f62:	400107b7          	lui	a5,0x40010
    2f66:	40078793          	addi	a5,a5,1024 # 40010400 <_eusrstack+0x20008400>
    2f6a:	43d4                	lw	a3,4(a5)
    2f6c:	fdc42783          	lw	a5,-36(s0)
    2f70:	439c                	lw	a5,0(a5)
    2f72:	fff7c713          	not	a4,a5
    2f76:	400107b7          	lui	a5,0x40010
    2f7a:	40078793          	addi	a5,a5,1024 # 40010400 <_eusrstack+0x20008400>
    2f7e:	8f75                	and	a4,a4,a3
    2f80:	c3d8                	sw	a4,4(a5)
    2f82:	fdc42783          	lw	a5,-36(s0)
    2f86:	43dc                	lw	a5,4(a5)
    2f88:	fec42703          	lw	a4,-20(s0)
    2f8c:	97ba                	add	a5,a5,a4
    2f8e:	fef42623          	sw	a5,-20(s0)
    2f92:	fec42783          	lw	a5,-20(s0)
    2f96:	4394                	lw	a3,0(a5)
    2f98:	fdc42783          	lw	a5,-36(s0)
    2f9c:	4398                	lw	a4,0(a5)
    2f9e:	fec42783          	lw	a5,-20(s0)
    2fa2:	8f55                	or	a4,a4,a3
    2fa4:	c398                	sw	a4,0(a5)
    2fa6:	400107b7          	lui	a5,0x40010
    2faa:	40078793          	addi	a5,a5,1024 # 40010400 <_eusrstack+0x20008400>
    2fae:	4794                	lw	a3,8(a5)
    2fb0:	fdc42783          	lw	a5,-36(s0)
    2fb4:	439c                	lw	a5,0(a5)
    2fb6:	fff7c713          	not	a4,a5
    2fba:	400107b7          	lui	a5,0x40010
    2fbe:	40078793          	addi	a5,a5,1024 # 40010400 <_eusrstack+0x20008400>
    2fc2:	8f75                	and	a4,a4,a3
    2fc4:	c798                	sw	a4,8(a5)
    2fc6:	400107b7          	lui	a5,0x40010
    2fca:	40078793          	addi	a5,a5,1024 # 40010400 <_eusrstack+0x20008400>
    2fce:	47d4                	lw	a3,12(a5)
    2fd0:	fdc42783          	lw	a5,-36(s0)
    2fd4:	439c                	lw	a5,0(a5)
    2fd6:	fff7c713          	not	a4,a5
    2fda:	400107b7          	lui	a5,0x40010
    2fde:	40078793          	addi	a5,a5,1024 # 40010400 <_eusrstack+0x20008400>
    2fe2:	8f75                	and	a4,a4,a3
    2fe4:	c7d8                	sw	a4,12(a5)
    2fe6:	fdc42783          	lw	a5,-36(s0)
    2fea:	4798                	lw	a4,8(a5)
    2fec:	47c1                	li	a5,16
    2fee:	02f71f63          	bne	a4,a5,302c <EXTI_Init+0x10e>
    2ff2:	400107b7          	lui	a5,0x40010
    2ff6:	40078793          	addi	a5,a5,1024 # 40010400 <_eusrstack+0x20008400>
    2ffa:	4794                	lw	a3,8(a5)
    2ffc:	fdc42783          	lw	a5,-36(s0)
    3000:	4398                	lw	a4,0(a5)
    3002:	400107b7          	lui	a5,0x40010
    3006:	40078793          	addi	a5,a5,1024 # 40010400 <_eusrstack+0x20008400>
    300a:	8f55                	or	a4,a4,a3
    300c:	c798                	sw	a4,8(a5)
    300e:	400107b7          	lui	a5,0x40010
    3012:	40078793          	addi	a5,a5,1024 # 40010400 <_eusrstack+0x20008400>
    3016:	47d4                	lw	a3,12(a5)
    3018:	fdc42783          	lw	a5,-36(s0)
    301c:	4398                	lw	a4,0(a5)
    301e:	400107b7          	lui	a5,0x40010
    3022:	40078793          	addi	a5,a5,1024 # 40010400 <_eusrstack+0x20008400>
    3026:	8f55                	or	a4,a4,a3
    3028:	c7d8                	sw	a4,12(a5)
    302a:	a8b1                	j	3086 <EXTI_Init+0x168>
    302c:	400107b7          	lui	a5,0x40010
    3030:	40078793          	addi	a5,a5,1024 # 40010400 <_eusrstack+0x20008400>
    3034:	fef42623          	sw	a5,-20(s0)
    3038:	fdc42783          	lw	a5,-36(s0)
    303c:	479c                	lw	a5,8(a5)
    303e:	fec42703          	lw	a4,-20(s0)
    3042:	97ba                	add	a5,a5,a4
    3044:	fef42623          	sw	a5,-20(s0)
    3048:	fec42783          	lw	a5,-20(s0)
    304c:	4394                	lw	a3,0(a5)
    304e:	fdc42783          	lw	a5,-36(s0)
    3052:	4398                	lw	a4,0(a5)
    3054:	fec42783          	lw	a5,-20(s0)
    3058:	8f55                	or	a4,a4,a3
    305a:	c398                	sw	a4,0(a5)
    305c:	a02d                	j	3086 <EXTI_Init+0x168>
    305e:	fdc42783          	lw	a5,-36(s0)
    3062:	43dc                	lw	a5,4(a5)
    3064:	fec42703          	lw	a4,-20(s0)
    3068:	97ba                	add	a5,a5,a4
    306a:	fef42623          	sw	a5,-20(s0)
    306e:	fec42783          	lw	a5,-20(s0)
    3072:	4394                	lw	a3,0(a5)
    3074:	fdc42783          	lw	a5,-36(s0)
    3078:	439c                	lw	a5,0(a5)
    307a:	fff7c713          	not	a4,a5
    307e:	fec42783          	lw	a5,-20(s0)
    3082:	8f75                	and	a4,a4,a3
    3084:	c398                	sw	a4,0(a5)
    3086:	0001                	nop
    3088:	5432                	lw	s0,44(sp)
    308a:	6145                	addi	sp,sp,48
    308c:	8082                	ret

0000308e <EXTI_GetFlagStatus>:
    308e:	7179                	addi	sp,sp,-48
    3090:	d622                	sw	s0,44(sp)
    3092:	1800                	addi	s0,sp,48
    3094:	fca42e23          	sw	a0,-36(s0)
    3098:	fe042623          	sw	zero,-20(s0)
    309c:	400107b7          	lui	a5,0x40010
    30a0:	40078793          	addi	a5,a5,1024 # 40010400 <_eusrstack+0x20008400>
    30a4:	4bd8                	lw	a4,20(a5)
    30a6:	fdc42783          	lw	a5,-36(s0)
    30aa:	8ff9                	and	a5,a5,a4
    30ac:	c789                	beqz	a5,30b6 <EXTI_GetFlagStatus+0x28>
    30ae:	4785                	li	a5,1
    30b0:	fef42623          	sw	a5,-20(s0)
    30b4:	a019                	j	30ba <EXTI_GetFlagStatus+0x2c>
    30b6:	fe042623          	sw	zero,-20(s0)
    30ba:	fec42783          	lw	a5,-20(s0)
    30be:	853e                	mv	a0,a5
    30c0:	5432                	lw	s0,44(sp)
    30c2:	6145                	addi	sp,sp,48
    30c4:	8082                	ret

000030c6 <EXTI_ClearFlag>:
    30c6:	1101                	addi	sp,sp,-32
    30c8:	ce22                	sw	s0,28(sp)
    30ca:	1000                	addi	s0,sp,32
    30cc:	fea42623          	sw	a0,-20(s0)
    30d0:	400107b7          	lui	a5,0x40010
    30d4:	40078793          	addi	a5,a5,1024 # 40010400 <_eusrstack+0x20008400>
    30d8:	fec42703          	lw	a4,-20(s0)
    30dc:	cbd8                	sw	a4,20(a5)
    30de:	0001                	nop
    30e0:	4472                	lw	s0,28(sp)
    30e2:	6105                	addi	sp,sp,32
    30e4:	8082                	ret

000030e6 <GPIO_Init>:
    30e6:	7139                	addi	sp,sp,-64
    30e8:	de22                	sw	s0,60(sp)
    30ea:	0080                	addi	s0,sp,64
    30ec:	fca42623          	sw	a0,-52(s0)
    30f0:	fcb42423          	sw	a1,-56(s0)
    30f4:	fe042623          	sw	zero,-20(s0)
    30f8:	fe042023          	sw	zero,-32(s0)
    30fc:	fe042423          	sw	zero,-24(s0)
    3100:	fc042e23          	sw	zero,-36(s0)
    3104:	fe042223          	sw	zero,-28(s0)
    3108:	fc042c23          	sw	zero,-40(s0)
    310c:	fc842783          	lw	a5,-56(s0)
    3110:	479c                	lw	a5,8(a5)
    3112:	8bbd                	andi	a5,a5,15
    3114:	fef42623          	sw	a5,-20(s0)
    3118:	fc842783          	lw	a5,-56(s0)
    311c:	479c                	lw	a5,8(a5)
    311e:	8bc1                	andi	a5,a5,16
    3120:	cb89                	beqz	a5,3132 <GPIO_Init+0x4c>
    3122:	fc842783          	lw	a5,-56(s0)
    3126:	43dc                	lw	a5,4(a5)
    3128:	fec42703          	lw	a4,-20(s0)
    312c:	8fd9                	or	a5,a5,a4
    312e:	fef42623          	sw	a5,-20(s0)
    3132:	fc842783          	lw	a5,-56(s0)
    3136:	239e                	lhu	a5,0(a5)
    3138:	0ff7f793          	andi	a5,a5,255
    313c:	cfe9                	beqz	a5,3216 <GPIO_Init+0x130>
    313e:	fcc42783          	lw	a5,-52(s0)
    3142:	439c                	lw	a5,0(a5)
    3144:	fef42223          	sw	a5,-28(s0)
    3148:	fe042423          	sw	zero,-24(s0)
    314c:	a85d                	j	3202 <GPIO_Init+0x11c>
    314e:	fe842783          	lw	a5,-24(s0)
    3152:	4705                	li	a4,1
    3154:	00f717b3          	sll	a5,a4,a5
    3158:	fcf42e23          	sw	a5,-36(s0)
    315c:	fc842783          	lw	a5,-56(s0)
    3160:	239e                	lhu	a5,0(a5)
    3162:	873e                	mv	a4,a5
    3164:	fdc42783          	lw	a5,-36(s0)
    3168:	8ff9                	and	a5,a5,a4
    316a:	fef42023          	sw	a5,-32(s0)
    316e:	fe042703          	lw	a4,-32(s0)
    3172:	fdc42783          	lw	a5,-36(s0)
    3176:	08f71163          	bne	a4,a5,31f8 <GPIO_Init+0x112>
    317a:	fe842783          	lw	a5,-24(s0)
    317e:	078a                	slli	a5,a5,0x2
    3180:	fcf42e23          	sw	a5,-36(s0)
    3184:	fdc42783          	lw	a5,-36(s0)
    3188:	473d                	li	a4,15
    318a:	00f717b3          	sll	a5,a4,a5
    318e:	fcf42c23          	sw	a5,-40(s0)
    3192:	fd842783          	lw	a5,-40(s0)
    3196:	fff7c793          	not	a5,a5
    319a:	fe442703          	lw	a4,-28(s0)
    319e:	8ff9                	and	a5,a5,a4
    31a0:	fef42223          	sw	a5,-28(s0)
    31a4:	fdc42783          	lw	a5,-36(s0)
    31a8:	fec42703          	lw	a4,-20(s0)
    31ac:	00f717b3          	sll	a5,a4,a5
    31b0:	fe442703          	lw	a4,-28(s0)
    31b4:	8fd9                	or	a5,a5,a4
    31b6:	fef42223          	sw	a5,-28(s0)
    31ba:	fc842783          	lw	a5,-56(s0)
    31be:	4798                	lw	a4,8(a5)
    31c0:	02800793          	li	a5,40
    31c4:	00f71b63          	bne	a4,a5,31da <GPIO_Init+0xf4>
    31c8:	fe842783          	lw	a5,-24(s0)
    31cc:	4705                	li	a4,1
    31ce:	00f71733          	sll	a4,a4,a5
    31d2:	fcc42783          	lw	a5,-52(s0)
    31d6:	cbd8                	sw	a4,20(a5)
    31d8:	a005                	j	31f8 <GPIO_Init+0x112>
    31da:	fc842783          	lw	a5,-56(s0)
    31de:	4798                	lw	a4,8(a5)
    31e0:	04800793          	li	a5,72
    31e4:	00f71a63          	bne	a4,a5,31f8 <GPIO_Init+0x112>
    31e8:	fe842783          	lw	a5,-24(s0)
    31ec:	4705                	li	a4,1
    31ee:	00f71733          	sll	a4,a4,a5
    31f2:	fcc42783          	lw	a5,-52(s0)
    31f6:	cb98                	sw	a4,16(a5)
    31f8:	fe842783          	lw	a5,-24(s0)
    31fc:	0785                	addi	a5,a5,1
    31fe:	fef42423          	sw	a5,-24(s0)
    3202:	fe842703          	lw	a4,-24(s0)
    3206:	479d                	li	a5,7
    3208:	f4e7f3e3          	bgeu	a5,a4,314e <GPIO_Init+0x68>
    320c:	fcc42783          	lw	a5,-52(s0)
    3210:	fe442703          	lw	a4,-28(s0)
    3214:	c398                	sw	a4,0(a5)
    3216:	fc842783          	lw	a5,-56(s0)
    321a:	239a                	lhu	a4,0(a5)
    321c:	0ff00793          	li	a5,255
    3220:	0ee7f063          	bgeu	a5,a4,3300 <GPIO_Init+0x21a>
    3224:	fcc42783          	lw	a5,-52(s0)
    3228:	43dc                	lw	a5,4(a5)
    322a:	fef42223          	sw	a5,-28(s0)
    322e:	fe042423          	sw	zero,-24(s0)
    3232:	a86d                	j	32ec <GPIO_Init+0x206>
    3234:	fe842783          	lw	a5,-24(s0)
    3238:	07a1                	addi	a5,a5,8
    323a:	4705                	li	a4,1
    323c:	00f717b3          	sll	a5,a4,a5
    3240:	fcf42e23          	sw	a5,-36(s0)
    3244:	fc842783          	lw	a5,-56(s0)
    3248:	239e                	lhu	a5,0(a5)
    324a:	873e                	mv	a4,a5
    324c:	fdc42783          	lw	a5,-36(s0)
    3250:	8ff9                	and	a5,a5,a4
    3252:	fef42023          	sw	a5,-32(s0)
    3256:	fe042703          	lw	a4,-32(s0)
    325a:	fdc42783          	lw	a5,-36(s0)
    325e:	08f71263          	bne	a4,a5,32e2 <GPIO_Init+0x1fc>
    3262:	fe842783          	lw	a5,-24(s0)
    3266:	078a                	slli	a5,a5,0x2
    3268:	fcf42e23          	sw	a5,-36(s0)
    326c:	fdc42783          	lw	a5,-36(s0)
    3270:	473d                	li	a4,15
    3272:	00f717b3          	sll	a5,a4,a5
    3276:	fcf42c23          	sw	a5,-40(s0)
    327a:	fd842783          	lw	a5,-40(s0)
    327e:	fff7c793          	not	a5,a5
    3282:	fe442703          	lw	a4,-28(s0)
    3286:	8ff9                	and	a5,a5,a4
    3288:	fef42223          	sw	a5,-28(s0)
    328c:	fdc42783          	lw	a5,-36(s0)
    3290:	fec42703          	lw	a4,-20(s0)
    3294:	00f717b3          	sll	a5,a4,a5
    3298:	fe442703          	lw	a4,-28(s0)
    329c:	8fd9                	or	a5,a5,a4
    329e:	fef42223          	sw	a5,-28(s0)
    32a2:	fc842783          	lw	a5,-56(s0)
    32a6:	4798                	lw	a4,8(a5)
    32a8:	02800793          	li	a5,40
    32ac:	00f71b63          	bne	a4,a5,32c2 <GPIO_Init+0x1dc>
    32b0:	fe842783          	lw	a5,-24(s0)
    32b4:	07a1                	addi	a5,a5,8
    32b6:	4705                	li	a4,1
    32b8:	00f71733          	sll	a4,a4,a5
    32bc:	fcc42783          	lw	a5,-52(s0)
    32c0:	cbd8                	sw	a4,20(a5)
    32c2:	fc842783          	lw	a5,-56(s0)
    32c6:	4798                	lw	a4,8(a5)
    32c8:	04800793          	li	a5,72
    32cc:	00f71b63          	bne	a4,a5,32e2 <GPIO_Init+0x1fc>
    32d0:	fe842783          	lw	a5,-24(s0)
    32d4:	07a1                	addi	a5,a5,8
    32d6:	4705                	li	a4,1
    32d8:	00f71733          	sll	a4,a4,a5
    32dc:	fcc42783          	lw	a5,-52(s0)
    32e0:	cb98                	sw	a4,16(a5)
    32e2:	fe842783          	lw	a5,-24(s0)
    32e6:	0785                	addi	a5,a5,1
    32e8:	fef42423          	sw	a5,-24(s0)
    32ec:	fe842703          	lw	a4,-24(s0)
    32f0:	479d                	li	a5,7
    32f2:	f4e7f1e3          	bgeu	a5,a4,3234 <GPIO_Init+0x14e>
    32f6:	fcc42783          	lw	a5,-52(s0)
    32fa:	fe442703          	lw	a4,-28(s0)
    32fe:	c3d8                	sw	a4,4(a5)
    3300:	0001                	nop
    3302:	5472                	lw	s0,60(sp)
    3304:	6121                	addi	sp,sp,64
    3306:	8082                	ret

00003308 <NVIC_PriorityGroupConfig>:
    3308:	1101                	addi	sp,sp,-32
    330a:	ce22                	sw	s0,28(sp)
    330c:	1000                	addi	s0,sp,32
    330e:	fea42623          	sw	a0,-20(s0)
    3312:	fec42703          	lw	a4,-20(s0)
    3316:	84e1a623          	sw	a4,-1972(gp) # 200000f4 <NVIC_Priority_Group>
    331a:	0001                	nop
    331c:	4472                	lw	s0,28(sp)
    331e:	6105                	addi	sp,sp,32
    3320:	8082                	ret

00003322 <NVIC_Init>:
    3322:	7179                	addi	sp,sp,-48
    3324:	d622                	sw	s0,44(sp)
    3326:	1800                	addi	s0,sp,48
    3328:	fca42e23          	sw	a0,-36(s0)
    332c:	84c1a703          	lw	a4,-1972(gp) # 200000f4 <NVIC_Priority_Group>
    3330:	4789                	li	a5,2
    3332:	04f71b63          	bne	a4,a5,3388 <NVIC_Init+0x66>
    3336:	fdc42783          	lw	a5,-36(s0)
    333a:	3398                	lbu	a4,1(a5)
    333c:	478d                	li	a5,3
    333e:	04e7e563          	bltu	a5,a4,3388 <NVIC_Init+0x66>
    3342:	fdc42783          	lw	a5,-36(s0)
    3346:	239c                	lbu	a5,0(a5)
    3348:	86be                	mv	a3,a5
    334a:	fdc42783          	lw	a5,-36(s0)
    334e:	339c                	lbu	a5,1(a5)
    3350:	079a                	slli	a5,a5,0x6
    3352:	01879713          	slli	a4,a5,0x18
    3356:	8761                	srai	a4,a4,0x18
    3358:	fdc42783          	lw	a5,-36(s0)
    335c:	23bc                	lbu	a5,2(a5)
    335e:	0796                	slli	a5,a5,0x5
    3360:	07e2                	slli	a5,a5,0x18
    3362:	87e1                	srai	a5,a5,0x18
    3364:	8fd9                	or	a5,a5,a4
    3366:	07e2                	slli	a5,a5,0x18
    3368:	87e1                	srai	a5,a5,0x18
    336a:	0ff7f793          	andi	a5,a5,255
    336e:	fed42623          	sw	a3,-20(s0)
    3372:	fef405a3          	sb	a5,-21(s0)
    3376:	e000e737          	lui	a4,0xe000e
    337a:	fec42783          	lw	a5,-20(s0)
    337e:	97ba                	add	a5,a5,a4
    3380:	feb44703          	lbu	a4,-21(s0)
    3384:	40e78023          	sb	a4,1024(a5)
    3388:	fdc42783          	lw	a5,-36(s0)
    338c:	43dc                	lw	a5,4(a5)
    338e:	c79d                	beqz	a5,33bc <NVIC_Init+0x9a>
    3390:	fdc42783          	lw	a5,-36(s0)
    3394:	239c                	lbu	a5,0(a5)
    3396:	fef42223          	sw	a5,-28(s0)
    339a:	fe442783          	lw	a5,-28(s0)
    339e:	8bfd                	andi	a5,a5,31
    33a0:	4705                	li	a4,1
    33a2:	00f716b3          	sll	a3,a4,a5
    33a6:	e000e737          	lui	a4,0xe000e
    33aa:	fe442783          	lw	a5,-28(s0)
    33ae:	8395                	srli	a5,a5,0x5
    33b0:	04078793          	addi	a5,a5,64
    33b4:	078a                	slli	a5,a5,0x2
    33b6:	97ba                	add	a5,a5,a4
    33b8:	c394                	sw	a3,0(a5)
    33ba:	a805                	j	33ea <NVIC_Init+0xc8>
    33bc:	fdc42783          	lw	a5,-36(s0)
    33c0:	239c                	lbu	a5,0(a5)
    33c2:	fef42023          	sw	a5,-32(s0)
    33c6:	fe042783          	lw	a5,-32(s0)
    33ca:	8bfd                	andi	a5,a5,31
    33cc:	4705                	li	a4,1
    33ce:	00f716b3          	sll	a3,a4,a5
    33d2:	e000e737          	lui	a4,0xe000e
    33d6:	fe042783          	lw	a5,-32(s0)
    33da:	8395                	srli	a5,a5,0x5
    33dc:	06078793          	addi	a5,a5,96
    33e0:	078a                	slli	a5,a5,0x2
    33e2:	97ba                	add	a5,a5,a4
    33e4:	c394                	sw	a3,0(a5)
    33e6:	0000100f          	fence.i
    33ea:	0001                	nop
    33ec:	5432                	lw	s0,44(sp)
    33ee:	6145                	addi	sp,sp,48
    33f0:	8082                	ret

000033f2 <PWR_EnterSTOPMode>:
    33f2:	7179                	addi	sp,sp,-48
    33f4:	d622                	sw	s0,44(sp)
    33f6:	1800                	addi	s0,sp,48
    33f8:	fca42e23          	sw	a0,-36(s0)
    33fc:	87ae                	mv	a5,a1
    33fe:	fcf40da3          	sb	a5,-37(s0)
    3402:	fe042623          	sw	zero,-20(s0)
    3406:	400077b7          	lui	a5,0x40007
    340a:	439c                	lw	a5,0(a5)
    340c:	fef42623          	sw	a5,-20(s0)
    3410:	fec42783          	lw	a5,-20(s0)
    3414:	9bf1                	andi	a5,a5,-4
    3416:	fef42623          	sw	a5,-20(s0)
    341a:	fec42703          	lw	a4,-20(s0)
    341e:	fdc42783          	lw	a5,-36(s0)
    3422:	8fd9                	or	a5,a5,a4
    3424:	fef42623          	sw	a5,-20(s0)
    3428:	400077b7          	lui	a5,0x40007
    342c:	fec42703          	lw	a4,-20(s0)
    3430:	c398                	sw	a4,0(a5)
    3432:	e000e737          	lui	a4,0xe000e
    3436:	6785                	lui	a5,0x1
    3438:	97ba                	add	a5,a5,a4
    343a:	d107a783          	lw	a5,-752(a5) # d10 <USBHS_IRQHandler+0x364>
    343e:	e000e6b7          	lui	a3,0xe000e
    3442:	0047e713          	ori	a4,a5,4
    3446:	6785                	lui	a5,0x1
    3448:	97b6                	add	a5,a5,a3
    344a:	d0e7a823          	sw	a4,-752(a5) # d10 <USBHS_IRQHandler+0x364>
    344e:	fdb44703          	lbu	a4,-37(s0)
    3452:	4785                	li	a5,1
    3454:	02f71363          	bne	a4,a5,347a <PWR_EnterSTOPMode+0x88>
    3458:	e000e737          	lui	a4,0xe000e
    345c:	6785                	lui	a5,0x1
    345e:	97ba                	add	a5,a5,a4
    3460:	d107a783          	lw	a5,-752(a5) # d10 <USBHS_IRQHandler+0x364>
    3464:	e000e6b7          	lui	a3,0xe000e
    3468:	ff77f713          	andi	a4,a5,-9
    346c:	6785                	lui	a5,0x1
    346e:	97b6                	add	a5,a5,a3
    3470:	d0e7a823          	sw	a4,-752(a5) # d10 <USBHS_IRQHandler+0x364>
    3474:	10500073          	wfi
    3478:	a851                	j	350c <PWR_EnterSTOPMode+0x11a>
    347a:	e000e737          	lui	a4,0xe000e
    347e:	6785                	lui	a5,0x1
    3480:	97ba                	add	a5,a5,a4
    3482:	d107a783          	lw	a5,-752(a5) # d10 <USBHS_IRQHandler+0x364>
    3486:	fef42423          	sw	a5,-24(s0)
    348a:	e000e737          	lui	a4,0xe000e
    348e:	6785                	lui	a5,0x1
    3490:	97ba                	add	a5,a5,a4
    3492:	d107a783          	lw	a5,-752(a5) # d10 <USBHS_IRQHandler+0x364>
    3496:	e000e6b7          	lui	a3,0xe000e
    349a:	0287e713          	ori	a4,a5,40
    349e:	6785                	lui	a5,0x1
    34a0:	97b6                	add	a5,a5,a3
    34a2:	d0e7a823          	sw	a4,-752(a5) # d10 <USBHS_IRQHandler+0x364>
    34a6:	e000e737          	lui	a4,0xe000e
    34aa:	6785                	lui	a5,0x1
    34ac:	97ba                	add	a5,a5,a4
    34ae:	d107a783          	lw	a5,-752(a5) # d10 <USBHS_IRQHandler+0x364>
    34b2:	fdf7f713          	andi	a4,a5,-33
    34b6:	fe842783          	lw	a5,-24(s0)
    34ba:	0207f793          	andi	a5,a5,32
    34be:	e000e6b7          	lui	a3,0xe000e
    34c2:	8f5d                	or	a4,a4,a5
    34c4:	6785                	lui	a5,0x1
    34c6:	97b6                	add	a5,a5,a3
    34c8:	d0e7a823          	sw	a4,-752(a5) # d10 <USBHS_IRQHandler+0x364>
    34cc:	e000e737          	lui	a4,0xe000e
    34d0:	6785                	lui	a5,0x1
    34d2:	97ba                	add	a5,a5,a4
    34d4:	d107a783          	lw	a5,-752(a5) # d10 <USBHS_IRQHandler+0x364>
    34d8:	e000e6b7          	lui	a3,0xe000e
    34dc:	0087e713          	ori	a4,a5,8
    34e0:	6785                	lui	a5,0x1
    34e2:	97b6                	add	a5,a5,a3
    34e4:	d0e7a823          	sw	a4,-752(a5) # d10 <USBHS_IRQHandler+0x364>
    34e8:	10500073          	wfi
    34ec:	e000e737          	lui	a4,0xe000e
    34f0:	6785                	lui	a5,0x1
    34f2:	97ba                	add	a5,a5,a4
    34f4:	d107a783          	lw	a5,-752(a5) # d10 <USBHS_IRQHandler+0x364>
    34f8:	e000e6b7          	lui	a3,0xe000e
    34fc:	0087e713          	ori	a4,a5,8
    3500:	6785                	lui	a5,0x1
    3502:	97b6                	add	a5,a5,a3
    3504:	d0e7a823          	sw	a4,-752(a5) # d10 <USBHS_IRQHandler+0x364>
    3508:	10500073          	wfi
    350c:	e000e737          	lui	a4,0xe000e
    3510:	6785                	lui	a5,0x1
    3512:	97ba                	add	a5,a5,a4
    3514:	d107a783          	lw	a5,-752(a5) # d10 <USBHS_IRQHandler+0x364>
    3518:	e000e6b7          	lui	a3,0xe000e
    351c:	ffb7f713          	andi	a4,a5,-5
    3520:	6785                	lui	a5,0x1
    3522:	97b6                	add	a5,a5,a3
    3524:	d0e7a823          	sw	a4,-752(a5) # d10 <USBHS_IRQHandler+0x364>
    3528:	0001                	nop
    352a:	5432                	lw	s0,44(sp)
    352c:	6145                	addi	sp,sp,48
    352e:	8082                	ret

00003530 <RCC_ADCCLKConfig>:
    3530:	7179                	addi	sp,sp,-48
    3532:	d622                	sw	s0,44(sp)
    3534:	1800                	addi	s0,sp,48
    3536:	fca42e23          	sw	a0,-36(s0)
    353a:	fe042623          	sw	zero,-20(s0)
    353e:	400217b7          	lui	a5,0x40021
    3542:	43dc                	lw	a5,4(a5)
    3544:	fef42623          	sw	a5,-20(s0)
    3548:	fec42703          	lw	a4,-20(s0)
    354c:	77d1                	lui	a5,0xffff4
    354e:	17fd                	addi	a5,a5,-1
    3550:	8ff9                	and	a5,a5,a4
    3552:	fef42623          	sw	a5,-20(s0)
    3556:	fec42703          	lw	a4,-20(s0)
    355a:	fdc42783          	lw	a5,-36(s0)
    355e:	8fd9                	or	a5,a5,a4
    3560:	fef42623          	sw	a5,-20(s0)
    3564:	400217b7          	lui	a5,0x40021
    3568:	fec42703          	lw	a4,-20(s0)
    356c:	c3d8                	sw	a4,4(a5)
    356e:	0001                	nop
    3570:	5432                	lw	s0,44(sp)
    3572:	6145                	addi	sp,sp,48
    3574:	8082                	ret

00003576 <RCC_AHBPeriphClockCmd>:
    3576:	1101                	addi	sp,sp,-32
    3578:	ce22                	sw	s0,28(sp)
    357a:	1000                	addi	s0,sp,32
    357c:	fea42623          	sw	a0,-20(s0)
    3580:	feb42423          	sw	a1,-24(s0)
    3584:	fe842783          	lw	a5,-24(s0)
    3588:	cb99                	beqz	a5,359e <RCC_AHBPeriphClockCmd+0x28>
    358a:	400217b7          	lui	a5,0x40021
    358e:	4bd4                	lw	a3,20(a5)
    3590:	400217b7          	lui	a5,0x40021
    3594:	fec42703          	lw	a4,-20(s0)
    3598:	8f55                	or	a4,a4,a3
    359a:	cbd8                	sw	a4,20(a5)
    359c:	a821                	j	35b4 <RCC_AHBPeriphClockCmd+0x3e>
    359e:	400217b7          	lui	a5,0x40021
    35a2:	4bd4                	lw	a3,20(a5)
    35a4:	fec42783          	lw	a5,-20(s0)
    35a8:	fff7c713          	not	a4,a5
    35ac:	400217b7          	lui	a5,0x40021
    35b0:	8f75                	and	a4,a4,a3
    35b2:	cbd8                	sw	a4,20(a5)
    35b4:	0001                	nop
    35b6:	4472                	lw	s0,28(sp)
    35b8:	6105                	addi	sp,sp,32
    35ba:	8082                	ret

000035bc <RCC_APB2PeriphClockCmd>:
    35bc:	1101                	addi	sp,sp,-32
    35be:	ce22                	sw	s0,28(sp)
    35c0:	1000                	addi	s0,sp,32
    35c2:	fea42623          	sw	a0,-20(s0)
    35c6:	feb42423          	sw	a1,-24(s0)
    35ca:	fe842783          	lw	a5,-24(s0)
    35ce:	cb99                	beqz	a5,35e4 <RCC_APB2PeriphClockCmd+0x28>
    35d0:	400217b7          	lui	a5,0x40021
    35d4:	4f94                	lw	a3,24(a5)
    35d6:	400217b7          	lui	a5,0x40021
    35da:	fec42703          	lw	a4,-20(s0)
    35de:	8f55                	or	a4,a4,a3
    35e0:	cf98                	sw	a4,24(a5)
    35e2:	a821                	j	35fa <RCC_APB2PeriphClockCmd+0x3e>
    35e4:	400217b7          	lui	a5,0x40021
    35e8:	4f94                	lw	a3,24(a5)
    35ea:	fec42783          	lw	a5,-20(s0)
    35ee:	fff7c713          	not	a4,a5
    35f2:	400217b7          	lui	a5,0x40021
    35f6:	8f75                	and	a4,a4,a3
    35f8:	cf98                	sw	a4,24(a5)
    35fa:	0001                	nop
    35fc:	4472                	lw	s0,28(sp)
    35fe:	6105                	addi	sp,sp,32
    3600:	8082                	ret

00003602 <RCC_APB1PeriphClockCmd>:
    3602:	1101                	addi	sp,sp,-32
    3604:	ce22                	sw	s0,28(sp)
    3606:	1000                	addi	s0,sp,32
    3608:	fea42623          	sw	a0,-20(s0)
    360c:	feb42423          	sw	a1,-24(s0)
    3610:	fe842783          	lw	a5,-24(s0)
    3614:	cb99                	beqz	a5,362a <RCC_APB1PeriphClockCmd+0x28>
    3616:	400217b7          	lui	a5,0x40021
    361a:	4fd4                	lw	a3,28(a5)
    361c:	400217b7          	lui	a5,0x40021
    3620:	fec42703          	lw	a4,-20(s0)
    3624:	8f55                	or	a4,a4,a3
    3626:	cfd8                	sw	a4,28(a5)
    3628:	a821                	j	3640 <RCC_APB1PeriphClockCmd+0x3e>
    362a:	400217b7          	lui	a5,0x40021
    362e:	4fd4                	lw	a3,28(a5)
    3630:	fec42783          	lw	a5,-20(s0)
    3634:	fff7c713          	not	a4,a5
    3638:	400217b7          	lui	a5,0x40021
    363c:	8f75                	and	a4,a4,a3
    363e:	cfd8                	sw	a4,28(a5)
    3640:	0001                	nop
    3642:	4472                	lw	s0,28(sp)
    3644:	6105                	addi	sp,sp,32
    3646:	8082                	ret

00003648 <RCC_APB2PeriphResetCmd>:
    3648:	1101                	addi	sp,sp,-32
    364a:	ce22                	sw	s0,28(sp)
    364c:	1000                	addi	s0,sp,32
    364e:	fea42623          	sw	a0,-20(s0)
    3652:	feb42423          	sw	a1,-24(s0)
    3656:	fe842783          	lw	a5,-24(s0)
    365a:	cb99                	beqz	a5,3670 <RCC_APB2PeriphResetCmd+0x28>
    365c:	400217b7          	lui	a5,0x40021
    3660:	47d4                	lw	a3,12(a5)
    3662:	400217b7          	lui	a5,0x40021
    3666:	fec42703          	lw	a4,-20(s0)
    366a:	8f55                	or	a4,a4,a3
    366c:	c7d8                	sw	a4,12(a5)
    366e:	a821                	j	3686 <RCC_APB2PeriphResetCmd+0x3e>
    3670:	400217b7          	lui	a5,0x40021
    3674:	47d4                	lw	a3,12(a5)
    3676:	fec42783          	lw	a5,-20(s0)
    367a:	fff7c713          	not	a4,a5
    367e:	400217b7          	lui	a5,0x40021
    3682:	8f75                	and	a4,a4,a3
    3684:	c7d8                	sw	a4,12(a5)
    3686:	0001                	nop
    3688:	4472                	lw	s0,28(sp)
    368a:	6105                	addi	sp,sp,32
    368c:	8082                	ret

0000368e <RCC_USBHSConfig>:
    368e:	1101                	addi	sp,sp,-32
    3690:	ce22                	sw	s0,28(sp)
    3692:	1000                	addi	s0,sp,32
    3694:	fea42623          	sw	a0,-20(s0)
    3698:	400217b7          	lui	a5,0x40021
    369c:	57d4                	lw	a3,44(a5)
    369e:	400217b7          	lui	a5,0x40021
    36a2:	f9000737          	lui	a4,0xf9000
    36a6:	177d                	addi	a4,a4,-1
    36a8:	8f75                	and	a4,a4,a3
    36aa:	d7d8                	sw	a4,44(a5)
    36ac:	400217b7          	lui	a5,0x40021
    36b0:	57d4                	lw	a3,44(a5)
    36b2:	fec42783          	lw	a5,-20(s0)
    36b6:	01879713          	slli	a4,a5,0x18
    36ba:	400217b7          	lui	a5,0x40021
    36be:	8f55                	or	a4,a4,a3
    36c0:	d7d8                	sw	a4,44(a5)
    36c2:	0001                	nop
    36c4:	4472                	lw	s0,28(sp)
    36c6:	6105                	addi	sp,sp,32
    36c8:	8082                	ret

000036ca <RCC_USBHSPLLCLKConfig>:
    36ca:	1101                	addi	sp,sp,-32
    36cc:	ce22                	sw	s0,28(sp)
    36ce:	1000                	addi	s0,sp,32
    36d0:	fea42623          	sw	a0,-20(s0)
    36d4:	400217b7          	lui	a5,0x40021
    36d8:	57d4                	lw	a3,44(a5)
    36da:	400217b7          	lui	a5,0x40021
    36de:	f8000737          	lui	a4,0xf8000
    36e2:	177d                	addi	a4,a4,-1
    36e4:	8f75                	and	a4,a4,a3
    36e6:	d7d8                	sw	a4,44(a5)
    36e8:	400217b7          	lui	a5,0x40021
    36ec:	57d4                	lw	a3,44(a5)
    36ee:	fec42783          	lw	a5,-20(s0)
    36f2:	01b79713          	slli	a4,a5,0x1b
    36f6:	400217b7          	lui	a5,0x40021
    36fa:	8f55                	or	a4,a4,a3
    36fc:	d7d8                	sw	a4,44(a5)
    36fe:	0001                	nop
    3700:	4472                	lw	s0,28(sp)
    3702:	6105                	addi	sp,sp,32
    3704:	8082                	ret

00003706 <RCC_USBHSPLLCKREFCLKConfig>:
    3706:	1101                	addi	sp,sp,-32
    3708:	ce22                	sw	s0,28(sp)
    370a:	1000                	addi	s0,sp,32
    370c:	fea42623          	sw	a0,-20(s0)
    3710:	400217b7          	lui	a5,0x40021
    3714:	57d4                	lw	a3,44(a5)
    3716:	400217b7          	lui	a5,0x40021
    371a:	d0000737          	lui	a4,0xd0000
    371e:	177d                	addi	a4,a4,-1
    3720:	8f75                	and	a4,a4,a3
    3722:	d7d8                	sw	a4,44(a5)
    3724:	400217b7          	lui	a5,0x40021
    3728:	57d4                	lw	a3,44(a5)
    372a:	fec42783          	lw	a5,-20(s0)
    372e:	01c79713          	slli	a4,a5,0x1c
    3732:	400217b7          	lui	a5,0x40021
    3736:	8f55                	or	a4,a4,a3
    3738:	d7d8                	sw	a4,44(a5)
    373a:	0001                	nop
    373c:	4472                	lw	s0,28(sp)
    373e:	6105                	addi	sp,sp,32
    3740:	8082                	ret

00003742 <RCC_USBHSPHYPLLALIVEcmd>:
    3742:	1101                	addi	sp,sp,-32
    3744:	ce22                	sw	s0,28(sp)
    3746:	1000                	addi	s0,sp,32
    3748:	fea42623          	sw	a0,-20(s0)
    374c:	fec42783          	lw	a5,-20(s0)
    3750:	cb99                	beqz	a5,3766 <RCC_USBHSPHYPLLALIVEcmd+0x24>
    3752:	400217b7          	lui	a5,0x40021
    3756:	57d4                	lw	a3,44(a5)
    3758:	400217b7          	lui	a5,0x40021
    375c:	40000737          	lui	a4,0x40000
    3760:	8f55                	or	a4,a4,a3
    3762:	d7d8                	sw	a4,44(a5)
    3764:	a819                	j	377a <RCC_USBHSPHYPLLALIVEcmd+0x38>
    3766:	400217b7          	lui	a5,0x40021
    376a:	57d4                	lw	a3,44(a5)
    376c:	400217b7          	lui	a5,0x40021
    3770:	c0000737          	lui	a4,0xc0000
    3774:	177d                	addi	a4,a4,-1
    3776:	8f75                	and	a4,a4,a3
    3778:	d7d8                	sw	a4,44(a5)
    377a:	0001                	nop
    377c:	4472                	lw	s0,28(sp)
    377e:	6105                	addi	sp,sp,32
    3780:	8082                	ret

00003782 <RCC_USBCLK48MConfig>:
    3782:	1101                	addi	sp,sp,-32
    3784:	ce22                	sw	s0,28(sp)
    3786:	1000                	addi	s0,sp,32
    3788:	fea42623          	sw	a0,-20(s0)
    378c:	400217b7          	lui	a5,0x40021
    3790:	57d4                	lw	a3,44(a5)
    3792:	400217b7          	lui	a5,0x40021
    3796:	80000737          	lui	a4,0x80000
    379a:	fff74713          	not	a4,a4
    379e:	8f75                	and	a4,a4,a3
    37a0:	d7d8                	sw	a4,44(a5)
    37a2:	400217b7          	lui	a5,0x40021
    37a6:	57d4                	lw	a3,44(a5)
    37a8:	fec42783          	lw	a5,-20(s0)
    37ac:	01f79713          	slli	a4,a5,0x1f
    37b0:	400217b7          	lui	a5,0x40021
    37b4:	8f55                	or	a4,a4,a3
    37b6:	d7d8                	sw	a4,44(a5)
    37b8:	0001                	nop
    37ba:	4472                	lw	s0,28(sp)
    37bc:	6105                	addi	sp,sp,32
    37be:	8082                	ret

000037c0 <TIM_TimeBaseInit>:
    37c0:	7179                	addi	sp,sp,-48
    37c2:	d622                	sw	s0,44(sp)
    37c4:	1800                	addi	s0,sp,48
    37c6:	fca42e23          	sw	a0,-36(s0)
    37ca:	fcb42c23          	sw	a1,-40(s0)
    37ce:	fe041723          	sh	zero,-18(s0)
    37d2:	fdc42783          	lw	a5,-36(s0)
    37d6:	239e                	lhu	a5,0(a5)
    37d8:	fef41723          	sh	a5,-18(s0)
    37dc:	fdc42703          	lw	a4,-36(s0)
    37e0:	400137b7          	lui	a5,0x40013
    37e4:	c0078793          	addi	a5,a5,-1024 # 40012c00 <_eusrstack+0x2000ac00>
    37e8:	06f70663          	beq	a4,a5,3854 <TIM_TimeBaseInit+0x94>
    37ec:	fdc42703          	lw	a4,-36(s0)
    37f0:	400007b7          	lui	a5,0x40000
    37f4:	06f70063          	beq	a4,a5,3854 <TIM_TimeBaseInit+0x94>
    37f8:	fdc42703          	lw	a4,-36(s0)
    37fc:	400007b7          	lui	a5,0x40000
    3800:	40078793          	addi	a5,a5,1024 # 40000400 <_eusrstack+0x1fff8400>
    3804:	04f70863          	beq	a4,a5,3854 <TIM_TimeBaseInit+0x94>
    3808:	fdc42703          	lw	a4,-36(s0)
    380c:	400017b7          	lui	a5,0x40001
    3810:	80078793          	addi	a5,a5,-2048 # 40000800 <_eusrstack+0x1fff8800>
    3814:	04f70063          	beq	a4,a5,3854 <TIM_TimeBaseInit+0x94>
    3818:	fdc42703          	lw	a4,-36(s0)
    381c:	400017b7          	lui	a5,0x40001
    3820:	c0078793          	addi	a5,a5,-1024 # 40000c00 <_eusrstack+0x1fff8c00>
    3824:	02f70863          	beq	a4,a5,3854 <TIM_TimeBaseInit+0x94>
    3828:	fdc42703          	lw	a4,-36(s0)
    382c:	400137b7          	lui	a5,0x40013
    3830:	40078793          	addi	a5,a5,1024 # 40013400 <_eusrstack+0x2000b400>
    3834:	02f70063          	beq	a4,a5,3854 <TIM_TimeBaseInit+0x94>
    3838:	fdc42703          	lw	a4,-36(s0)
    383c:	400157b7          	lui	a5,0x40015
    3840:	c0078793          	addi	a5,a5,-1024 # 40014c00 <_eusrstack+0x2000cc00>
    3844:	00f70863          	beq	a4,a5,3854 <TIM_TimeBaseInit+0x94>
    3848:	fdc42703          	lw	a4,-36(s0)
    384c:	400157b7          	lui	a5,0x40015
    3850:	02f71063          	bne	a4,a5,3870 <TIM_TimeBaseInit+0xb0>
    3854:	fee45783          	lhu	a5,-18(s0)
    3858:	f8f7f793          	andi	a5,a5,-113
    385c:	fef41723          	sh	a5,-18(s0)
    3860:	fd842783          	lw	a5,-40(s0)
    3864:	23ba                	lhu	a4,2(a5)
    3866:	fee45783          	lhu	a5,-18(s0)
    386a:	8fd9                	or	a5,a5,a4
    386c:	fef41723          	sh	a5,-18(s0)
    3870:	fdc42703          	lw	a4,-36(s0)
    3874:	400017b7          	lui	a5,0x40001
    3878:	02f70863          	beq	a4,a5,38a8 <TIM_TimeBaseInit+0xe8>
    387c:	fdc42703          	lw	a4,-36(s0)
    3880:	400017b7          	lui	a5,0x40001
    3884:	40078793          	addi	a5,a5,1024 # 40001400 <_eusrstack+0x1fff9400>
    3888:	02f70063          	beq	a4,a5,38a8 <TIM_TimeBaseInit+0xe8>
    388c:	fee45783          	lhu	a5,-18(s0)
    3890:	cff7f793          	andi	a5,a5,-769
    3894:	fef41723          	sh	a5,-18(s0)
    3898:	fd842783          	lw	a5,-40(s0)
    389c:	23fa                	lhu	a4,6(a5)
    389e:	fee45783          	lhu	a5,-18(s0)
    38a2:	8fd9                	or	a5,a5,a4
    38a4:	fef41723          	sh	a5,-18(s0)
    38a8:	fdc42783          	lw	a5,-36(s0)
    38ac:	fee45703          	lhu	a4,-18(s0)
    38b0:	a39a                	sh	a4,0(a5)
    38b2:	fd842783          	lw	a5,-40(s0)
    38b6:	23da                	lhu	a4,4(a5)
    38b8:	fdc42783          	lw	a5,-36(s0)
    38bc:	b7da                	sh	a4,44(a5)
    38be:	fd842783          	lw	a5,-40(s0)
    38c2:	239a                	lhu	a4,0(a5)
    38c4:	fdc42783          	lw	a5,-36(s0)
    38c8:	b79a                	sh	a4,40(a5)
    38ca:	fdc42703          	lw	a4,-36(s0)
    38ce:	400137b7          	lui	a5,0x40013
    38d2:	c0078793          	addi	a5,a5,-1024 # 40012c00 <_eusrstack+0x2000ac00>
    38d6:	02f70863          	beq	a4,a5,3906 <TIM_TimeBaseInit+0x146>
    38da:	fdc42703          	lw	a4,-36(s0)
    38de:	400137b7          	lui	a5,0x40013
    38e2:	40078793          	addi	a5,a5,1024 # 40013400 <_eusrstack+0x2000b400>
    38e6:	02f70063          	beq	a4,a5,3906 <TIM_TimeBaseInit+0x146>
    38ea:	fdc42703          	lw	a4,-36(s0)
    38ee:	400157b7          	lui	a5,0x40015
    38f2:	c0078793          	addi	a5,a5,-1024 # 40014c00 <_eusrstack+0x2000cc00>
    38f6:	00f70863          	beq	a4,a5,3906 <TIM_TimeBaseInit+0x146>
    38fa:	fdc42703          	lw	a4,-36(s0)
    38fe:	400157b7          	lui	a5,0x40015
    3902:	00f71b63          	bne	a4,a5,3918 <TIM_TimeBaseInit+0x158>
    3906:	fd842783          	lw	a5,-40(s0)
    390a:	279c                	lbu	a5,8(a5)
    390c:	01079713          	slli	a4,a5,0x10
    3910:	8341                	srli	a4,a4,0x10
    3912:	fdc42783          	lw	a5,-36(s0)
    3916:	bb9a                	sh	a4,48(a5)
    3918:	fdc42783          	lw	a5,-36(s0)
    391c:	4705                	li	a4,1
    391e:	abda                	sh	a4,20(a5)
    3920:	0001                	nop
    3922:	5432                	lw	s0,44(sp)
    3924:	6145                	addi	sp,sp,48
    3926:	8082                	ret

00003928 <TIM_Cmd>:
    3928:	1101                	addi	sp,sp,-32
    392a:	ce22                	sw	s0,28(sp)
    392c:	1000                	addi	s0,sp,32
    392e:	fea42623          	sw	a0,-20(s0)
    3932:	feb42423          	sw	a1,-24(s0)
    3936:	fe842783          	lw	a5,-24(s0)
    393a:	cf99                	beqz	a5,3958 <TIM_Cmd+0x30>
    393c:	fec42783          	lw	a5,-20(s0)
    3940:	239e                	lhu	a5,0(a5)
    3942:	07c2                	slli	a5,a5,0x10
    3944:	83c1                	srli	a5,a5,0x10
    3946:	0017e793          	ori	a5,a5,1
    394a:	01079713          	slli	a4,a5,0x10
    394e:	8341                	srli	a4,a4,0x10
    3950:	fec42783          	lw	a5,-20(s0)
    3954:	a39a                	sh	a4,0(a5)
    3956:	a829                	j	3970 <TIM_Cmd+0x48>
    3958:	fec42783          	lw	a5,-20(s0)
    395c:	239e                	lhu	a5,0(a5)
    395e:	07c2                	slli	a5,a5,0x10
    3960:	83c1                	srli	a5,a5,0x10
    3962:	9bf9                	andi	a5,a5,-2
    3964:	01079713          	slli	a4,a5,0x10
    3968:	8341                	srli	a4,a4,0x10
    396a:	fec42783          	lw	a5,-20(s0)
    396e:	a39a                	sh	a4,0(a5)
    3970:	0001                	nop
    3972:	4472                	lw	s0,28(sp)
    3974:	6105                	addi	sp,sp,32
    3976:	8082                	ret

00003978 <TIM_ITConfig>:
    3978:	1101                	addi	sp,sp,-32
    397a:	ce22                	sw	s0,28(sp)
    397c:	1000                	addi	s0,sp,32
    397e:	fea42623          	sw	a0,-20(s0)
    3982:	87ae                	mv	a5,a1
    3984:	fec42223          	sw	a2,-28(s0)
    3988:	fef41523          	sh	a5,-22(s0)
    398c:	fe442783          	lw	a5,-28(s0)
    3990:	c38d                	beqz	a5,39b2 <TIM_ITConfig+0x3a>
    3992:	fec42783          	lw	a5,-20(s0)
    3996:	27de                	lhu	a5,12(a5)
    3998:	01079713          	slli	a4,a5,0x10
    399c:	8341                	srli	a4,a4,0x10
    399e:	fea45783          	lhu	a5,-22(s0)
    39a2:	8fd9                	or	a5,a5,a4
    39a4:	01079713          	slli	a4,a5,0x10
    39a8:	8341                	srli	a4,a4,0x10
    39aa:	fec42783          	lw	a5,-20(s0)
    39ae:	a7da                	sh	a4,12(a5)
    39b0:	a025                	j	39d8 <TIM_ITConfig+0x60>
    39b2:	fec42783          	lw	a5,-20(s0)
    39b6:	27de                	lhu	a5,12(a5)
    39b8:	01079713          	slli	a4,a5,0x10
    39bc:	8341                	srli	a4,a4,0x10
    39be:	fea45783          	lhu	a5,-22(s0)
    39c2:	fff7c793          	not	a5,a5
    39c6:	07c2                	slli	a5,a5,0x10
    39c8:	83c1                	srli	a5,a5,0x10
    39ca:	8ff9                	and	a5,a5,a4
    39cc:	01079713          	slli	a4,a5,0x10
    39d0:	8341                	srli	a4,a4,0x10
    39d2:	fec42783          	lw	a5,-20(s0)
    39d6:	a7da                	sh	a4,12(a5)
    39d8:	0001                	nop
    39da:	4472                	lw	s0,28(sp)
    39dc:	6105                	addi	sp,sp,32
    39de:	8082                	ret

000039e0 <TIM_GetITStatus>:
    39e0:	7179                	addi	sp,sp,-48
    39e2:	d622                	sw	s0,44(sp)
    39e4:	1800                	addi	s0,sp,48
    39e6:	fca42e23          	sw	a0,-36(s0)
    39ea:	87ae                	mv	a5,a1
    39ec:	fcf41d23          	sh	a5,-38(s0)
    39f0:	fe042623          	sw	zero,-20(s0)
    39f4:	fe041523          	sh	zero,-22(s0)
    39f8:	fe041423          	sh	zero,-24(s0)
    39fc:	fdc42783          	lw	a5,-36(s0)
    3a00:	2b9e                	lhu	a5,16(a5)
    3a02:	01079713          	slli	a4,a5,0x10
    3a06:	8341                	srli	a4,a4,0x10
    3a08:	fda45783          	lhu	a5,-38(s0)
    3a0c:	8ff9                	and	a5,a5,a4
    3a0e:	fef41523          	sh	a5,-22(s0)
    3a12:	fdc42783          	lw	a5,-36(s0)
    3a16:	27de                	lhu	a5,12(a5)
    3a18:	01079713          	slli	a4,a5,0x10
    3a1c:	8341                	srli	a4,a4,0x10
    3a1e:	fda45783          	lhu	a5,-38(s0)
    3a22:	8ff9                	and	a5,a5,a4
    3a24:	fef41423          	sh	a5,-24(s0)
    3a28:	fea45783          	lhu	a5,-22(s0)
    3a2c:	cb81                	beqz	a5,3a3c <TIM_GetITStatus+0x5c>
    3a2e:	fe845783          	lhu	a5,-24(s0)
    3a32:	c789                	beqz	a5,3a3c <TIM_GetITStatus+0x5c>
    3a34:	4785                	li	a5,1
    3a36:	fef42623          	sw	a5,-20(s0)
    3a3a:	a019                	j	3a40 <TIM_GetITStatus+0x60>
    3a3c:	fe042623          	sw	zero,-20(s0)
    3a40:	fec42783          	lw	a5,-20(s0)
    3a44:	853e                	mv	a0,a5
    3a46:	5432                	lw	s0,44(sp)
    3a48:	6145                	addi	sp,sp,48
    3a4a:	8082                	ret

00003a4c <TIM_ClearITPendingBit>:
    3a4c:	1101                	addi	sp,sp,-32
    3a4e:	ce22                	sw	s0,28(sp)
    3a50:	1000                	addi	s0,sp,32
    3a52:	fea42623          	sw	a0,-20(s0)
    3a56:	87ae                	mv	a5,a1
    3a58:	fef41523          	sh	a5,-22(s0)
    3a5c:	fea45783          	lhu	a5,-22(s0)
    3a60:	fff7c793          	not	a5,a5
    3a64:	01079713          	slli	a4,a5,0x10
    3a68:	8341                	srli	a4,a4,0x10
    3a6a:	fec42783          	lw	a5,-20(s0)
    3a6e:	ab9a                	sh	a4,16(a5)
    3a70:	0001                	nop
    3a72:	4472                	lw	s0,28(sp)
    3a74:	6105                	addi	sp,sp,32
    3a76:	8082                	ret

00003a78 <USART_SendData>:
    3a78:	1101                	addi	sp,sp,-32
    3a7a:	ce22                	sw	s0,28(sp)
    3a7c:	1000                	addi	s0,sp,32
    3a7e:	fea42623          	sw	a0,-20(s0)
    3a82:	87ae                	mv	a5,a1
    3a84:	fef41523          	sh	a5,-22(s0)
    3a88:	fea45783          	lhu	a5,-22(s0)
    3a8c:	1ff7f793          	andi	a5,a5,511
    3a90:	01079713          	slli	a4,a5,0x10
    3a94:	8341                	srli	a4,a4,0x10
    3a96:	fec42783          	lw	a5,-20(s0)
    3a9a:	a3da                	sh	a4,4(a5)
    3a9c:	0001                	nop
    3a9e:	4472                	lw	s0,28(sp)
    3aa0:	6105                	addi	sp,sp,32
    3aa2:	8082                	ret

00003aa4 <USART_GetFlagStatus>:
    3aa4:	7179                	addi	sp,sp,-48
    3aa6:	d622                	sw	s0,44(sp)
    3aa8:	1800                	addi	s0,sp,48
    3aaa:	fca42e23          	sw	a0,-36(s0)
    3aae:	87ae                	mv	a5,a1
    3ab0:	fcf41d23          	sh	a5,-38(s0)
    3ab4:	fe042623          	sw	zero,-20(s0)
    3ab8:	fdc42783          	lw	a5,-36(s0)
    3abc:	239e                	lhu	a5,0(a5)
    3abe:	01079713          	slli	a4,a5,0x10
    3ac2:	8341                	srli	a4,a4,0x10
    3ac4:	fda45783          	lhu	a5,-38(s0)
    3ac8:	8ff9                	and	a5,a5,a4
    3aca:	07c2                	slli	a5,a5,0x10
    3acc:	83c1                	srli	a5,a5,0x10
    3ace:	c789                	beqz	a5,3ad8 <USART_GetFlagStatus+0x34>
    3ad0:	4785                	li	a5,1
    3ad2:	fef42623          	sw	a5,-20(s0)
    3ad6:	a019                	j	3adc <USART_GetFlagStatus+0x38>
    3ad8:	fe042623          	sw	zero,-20(s0)
    3adc:	fec42783          	lw	a5,-20(s0)
    3ae0:	853e                	mv	a0,a5
    3ae2:	5432                	lw	s0,44(sp)
    3ae4:	6145                	addi	sp,sp,48
    3ae6:	8082                	ret

00003ae8 <Delay_Init>:
    3ae8:	1141                	addi	sp,sp,-16
    3aea:	c622                	sw	s0,12(sp)
    3aec:	0800                	addi	s0,sp,16
    3aee:	200007b7          	lui	a5,0x20000
    3af2:	0a87a703          	lw	a4,168(a5) # 200000a8 <SystemCoreClock>
    3af6:	007a17b7          	lui	a5,0x7a1
    3afa:	20078793          	addi	a5,a5,512 # 7a1200 <_data_lma+0x79bf88>
    3afe:	02f757b3          	divu	a5,a4,a5
    3b02:	0ff7f713          	andi	a4,a5,255
    3b06:	84e18823          	sb	a4,-1968(gp) # 200000f8 <p_us>
    3b0a:	8501c783          	lbu	a5,-1968(gp) # 200000f8 <p_us>
    3b0e:	01079713          	slli	a4,a5,0x10
    3b12:	8341                	srli	a4,a4,0x10
    3b14:	3e800793          	li	a5,1000
    3b18:	02f707b3          	mul	a5,a4,a5
    3b1c:	01079713          	slli	a4,a5,0x10
    3b20:	8341                	srli	a4,a4,0x10
    3b22:	84e19923          	sh	a4,-1966(gp) # 200000fa <p_ms>
    3b26:	0001                	nop
    3b28:	4432                	lw	s0,12(sp)
    3b2a:	0141                	addi	sp,sp,16
    3b2c:	8082                	ret

00003b2e <Delay_Us>:
    3b2e:	7179                	addi	sp,sp,-48
    3b30:	d622                	sw	s0,44(sp)
    3b32:	1800                	addi	s0,sp,48
    3b34:	fca42e23          	sw	a0,-36(s0)
    3b38:	e000f737          	lui	a4,0xe000f
    3b3c:	4354                	lw	a3,4(a4)
    3b3e:	e000f737          	lui	a4,0xe000f
    3b42:	9af9                	andi	a3,a3,-2
    3b44:	c354                	sw	a3,4(a4)
    3b46:	8501c703          	lbu	a4,-1968(gp) # 200000f8 <p_us>
    3b4a:	86ba                	mv	a3,a4
    3b4c:	fdc42703          	lw	a4,-36(s0)
    3b50:	02d70733          	mul	a4,a4,a3
    3b54:	fee42623          	sw	a4,-20(s0)
    3b58:	e000f737          	lui	a4,0xe000f
    3b5c:	fec42683          	lw	a3,-20(s0)
    3b60:	87b6                	mv	a5,a3
    3b62:	4801                	li	a6,0
    3b64:	cb1c                	sw	a5,16(a4)
    3b66:	01072a23          	sw	a6,20(a4) # e000f014 <_eusrstack+0xc0007014>
    3b6a:	e000f7b7          	lui	a5,0xe000f
    3b6e:	4398                	lw	a4,0(a5)
    3b70:	e000f7b7          	lui	a5,0xe000f
    3b74:	01076713          	ori	a4,a4,16
    3b78:	c398                	sw	a4,0(a5)
    3b7a:	e000f7b7          	lui	a5,0xe000f
    3b7e:	4398                	lw	a4,0(a5)
    3b80:	e000f7b7          	lui	a5,0xe000f
    3b84:	02176713          	ori	a4,a4,33
    3b88:	c398                	sw	a4,0(a5)
    3b8a:	0001                	nop
    3b8c:	e000f7b7          	lui	a5,0xe000f
    3b90:	43dc                	lw	a5,4(a5)
    3b92:	0017f713          	andi	a4,a5,1
    3b96:	4785                	li	a5,1
    3b98:	fef71ae3          	bne	a4,a5,3b8c <Delay_Us+0x5e>
    3b9c:	e000f7b7          	lui	a5,0xe000f
    3ba0:	4398                	lw	a4,0(a5)
    3ba2:	e000f7b7          	lui	a5,0xe000f
    3ba6:	9b79                	andi	a4,a4,-2
    3ba8:	c398                	sw	a4,0(a5)
    3baa:	0001                	nop
    3bac:	5432                	lw	s0,44(sp)
    3bae:	6145                	addi	sp,sp,48
    3bb0:	8082                	ret

00003bb2 <Delay_Ms>:
    3bb2:	7179                	addi	sp,sp,-48
    3bb4:	d622                	sw	s0,44(sp)
    3bb6:	1800                	addi	s0,sp,48
    3bb8:	fca42e23          	sw	a0,-36(s0)
    3bbc:	e000f737          	lui	a4,0xe000f
    3bc0:	4354                	lw	a3,4(a4)
    3bc2:	e000f737          	lui	a4,0xe000f
    3bc6:	9af9                	andi	a3,a3,-2
    3bc8:	c354                	sw	a3,4(a4)
    3bca:	8521d703          	lhu	a4,-1966(gp) # 200000fa <p_ms>
    3bce:	86ba                	mv	a3,a4
    3bd0:	fdc42703          	lw	a4,-36(s0)
    3bd4:	02d70733          	mul	a4,a4,a3
    3bd8:	fee42623          	sw	a4,-20(s0)
    3bdc:	e000f737          	lui	a4,0xe000f
    3be0:	fec42683          	lw	a3,-20(s0)
    3be4:	87b6                	mv	a5,a3
    3be6:	4801                	li	a6,0
    3be8:	cb1c                	sw	a5,16(a4)
    3bea:	01072a23          	sw	a6,20(a4) # e000f014 <_eusrstack+0xc0007014>
    3bee:	e000f7b7          	lui	a5,0xe000f
    3bf2:	4398                	lw	a4,0(a5)
    3bf4:	e000f7b7          	lui	a5,0xe000f
    3bf8:	01076713          	ori	a4,a4,16
    3bfc:	c398                	sw	a4,0(a5)
    3bfe:	e000f7b7          	lui	a5,0xe000f
    3c02:	4398                	lw	a4,0(a5)
    3c04:	e000f7b7          	lui	a5,0xe000f
    3c08:	02176713          	ori	a4,a4,33
    3c0c:	c398                	sw	a4,0(a5)
    3c0e:	0001                	nop
    3c10:	e000f7b7          	lui	a5,0xe000f
    3c14:	43dc                	lw	a5,4(a5)
    3c16:	0017f713          	andi	a4,a5,1
    3c1a:	4785                	li	a5,1
    3c1c:	fef71ae3          	bne	a4,a5,3c10 <Delay_Ms+0x5e>
    3c20:	e000f7b7          	lui	a5,0xe000f
    3c24:	4398                	lw	a4,0(a5)
    3c26:	e000f7b7          	lui	a5,0xe000f
    3c2a:	9b79                	andi	a4,a4,-2
    3c2c:	c398                	sw	a4,0(a5)
    3c2e:	0001                	nop
    3c30:	5432                	lw	s0,44(sp)
    3c32:	6145                	addi	sp,sp,48
    3c34:	8082                	ret

00003c36 <_write>:
    3c36:	7179                	addi	sp,sp,-48
    3c38:	d606                	sw	ra,44(sp)
    3c3a:	d422                	sw	s0,40(sp)
    3c3c:	1800                	addi	s0,sp,48
    3c3e:	fca42e23          	sw	a0,-36(s0)
    3c42:	fcb42c23          	sw	a1,-40(s0)
    3c46:	fcc42a23          	sw	a2,-44(s0)
    3c4a:	fe042623          	sw	zero,-20(s0)
    3c4e:	fe042623          	sw	zero,-20(s0)
    3c52:	a081                	j	3c92 <_write+0x5c>
    3c54:	0001                	nop
    3c56:	04000593          	li	a1,64
    3c5a:	400147b7          	lui	a5,0x40014
    3c5e:	80078513          	addi	a0,a5,-2048 # 40013800 <_eusrstack+0x2000b800>
    3c62:	3589                	jal	3aa4 <USART_GetFlagStatus>
    3c64:	87aa                	mv	a5,a0
    3c66:	dbe5                	beqz	a5,3c56 <_write+0x20>
    3c68:	fd842783          	lw	a5,-40(s0)
    3c6c:	00178713          	addi	a4,a5,1
    3c70:	fce42c23          	sw	a4,-40(s0)
    3c74:	00078783          	lb	a5,0(a5)
    3c78:	07c2                	slli	a5,a5,0x10
    3c7a:	83c1                	srli	a5,a5,0x10
    3c7c:	85be                	mv	a1,a5
    3c7e:	400147b7          	lui	a5,0x40014
    3c82:	80078513          	addi	a0,a5,-2048 # 40013800 <_eusrstack+0x2000b800>
    3c86:	3bcd                	jal	3a78 <USART_SendData>
    3c88:	fec42783          	lw	a5,-20(s0)
    3c8c:	0785                	addi	a5,a5,1
    3c8e:	fef42623          	sw	a5,-20(s0)
    3c92:	fec42703          	lw	a4,-20(s0)
    3c96:	fd442783          	lw	a5,-44(s0)
    3c9a:	faf74de3          	blt	a4,a5,3c54 <_write+0x1e>
    3c9e:	fd442783          	lw	a5,-44(s0)
    3ca2:	853e                	mv	a0,a5
    3ca4:	50b2                	lw	ra,44(sp)
    3ca6:	5422                	lw	s0,40(sp)
    3ca8:	6145                	addi	sp,sp,48
    3caa:	8082                	ret

00003cac <_sbrk>:
    3cac:	1101                	addi	sp,sp,-32
    3cae:	ce22                	sw	s0,28(sp)
    3cb0:	1000                	addi	s0,sp,32
    3cb2:	fea42623          	sw	a0,-20(s0)
    3cb6:	8081a703          	lw	a4,-2040(gp) # 200000b0 <curbrk.5377>
    3cba:	fec42783          	lw	a5,-20(s0)
    3cbe:	973e                	add	a4,a4,a5
    3cc0:	cc018793          	addi	a5,gp,-832 # 20000568 <_ebss>
    3cc4:	00f76d63          	bltu	a4,a5,3cde <_sbrk+0x32>
    3cc8:	8081a703          	lw	a4,-2040(gp) # 200000b0 <curbrk.5377>
    3ccc:	fec42783          	lw	a5,-20(s0)
    3cd0:	973e                	add	a4,a4,a5
    3cd2:	200087b7          	lui	a5,0x20008
    3cd6:	80078793          	addi	a5,a5,-2048 # 20007800 <_heap_end>
    3cda:	00e7f463          	bgeu	a5,a4,3ce2 <_sbrk+0x36>
    3cde:	57fd                	li	a5,-1
    3ce0:	a839                	j	3cfe <_sbrk+0x52>
    3ce2:	8081a703          	lw	a4,-2040(gp) # 200000b0 <curbrk.5377>
    3ce6:	fec42783          	lw	a5,-20(s0)
    3cea:	973e                	add	a4,a4,a5
    3cec:	80e1a423          	sw	a4,-2040(gp) # 200000b0 <curbrk.5377>
    3cf0:	8081a703          	lw	a4,-2040(gp) # 200000b0 <curbrk.5377>
    3cf4:	fec42783          	lw	a5,-20(s0)
    3cf8:	40f007b3          	neg	a5,a5
    3cfc:	97ba                	add	a5,a5,a4
    3cfe:	853e                	mv	a0,a5
    3d00:	4472                	lw	s0,28(sp)
    3d02:	6105                	addi	sp,sp,32
    3d04:	8082                	ret

00003d06 <memcpy>:
    3d06:	00a5c7b3          	xor	a5,a1,a0
    3d0a:	8b8d                	andi	a5,a5,3
    3d0c:	00c50733          	add	a4,a0,a2
    3d10:	e781                	bnez	a5,3d18 <memcpy+0x12>
    3d12:	478d                	li	a5,3
    3d14:	00c7ed63          	bltu	a5,a2,3d2e <memcpy+0x28>
    3d18:	87aa                	mv	a5,a0
    3d1a:	08e57e63          	bgeu	a0,a4,3db6 <memcpy+0xb0>
    3d1e:	2194                	lbu	a3,0(a1)
    3d20:	0785                	addi	a5,a5,1
    3d22:	0585                	addi	a1,a1,1
    3d24:	fed78fa3          	sb	a3,-1(a5)
    3d28:	fee7ebe3          	bltu	a5,a4,3d1e <memcpy+0x18>
    3d2c:	8082                	ret
    3d2e:	00357693          	andi	a3,a0,3
    3d32:	87aa                	mv	a5,a0
    3d34:	ca89                	beqz	a3,3d46 <memcpy+0x40>
    3d36:	2194                	lbu	a3,0(a1)
    3d38:	0785                	addi	a5,a5,1
    3d3a:	0585                	addi	a1,a1,1
    3d3c:	fed78fa3          	sb	a3,-1(a5)
    3d40:	0037f693          	andi	a3,a5,3
    3d44:	bfc5                	j	3d34 <memcpy+0x2e>
    3d46:	ffc77693          	andi	a3,a4,-4
    3d4a:	fe068613          	addi	a2,a3,-32 # e000dfe0 <_eusrstack+0xc0005fe0>
    3d4e:	06c7f063          	bgeu	a5,a2,3dae <memcpy+0xa8>
    3d52:	0005a383          	lw	t2,0(a1)
    3d56:	0045a283          	lw	t0,4(a1)
    3d5a:	0085af83          	lw	t6,8(a1)
    3d5e:	00c5af03          	lw	t5,12(a1)
    3d62:	0105ae83          	lw	t4,16(a1)
    3d66:	0145ae03          	lw	t3,20(a1)
    3d6a:	0185a303          	lw	t1,24(a1)
    3d6e:	01c5a883          	lw	a7,28(a1)
    3d72:	02458593          	addi	a1,a1,36
    3d76:	0077a023          	sw	t2,0(a5)
    3d7a:	ffc5a803          	lw	a6,-4(a1)
    3d7e:	0057a223          	sw	t0,4(a5)
    3d82:	01f7a423          	sw	t6,8(a5)
    3d86:	01e7a623          	sw	t5,12(a5)
    3d8a:	01d7a823          	sw	t4,16(a5)
    3d8e:	01c7aa23          	sw	t3,20(a5)
    3d92:	0067ac23          	sw	t1,24(a5)
    3d96:	0117ae23          	sw	a7,28(a5)
    3d9a:	02478793          	addi	a5,a5,36
    3d9e:	ff07ae23          	sw	a6,-4(a5)
    3da2:	b775                	j	3d4e <memcpy+0x48>
    3da4:	4190                	lw	a2,0(a1)
    3da6:	0791                	addi	a5,a5,4
    3da8:	0591                	addi	a1,a1,4
    3daa:	fec7ae23          	sw	a2,-4(a5)
    3dae:	fed7ebe3          	bltu	a5,a3,3da4 <memcpy+0x9e>
    3db2:	f6e7e6e3          	bltu	a5,a4,3d1e <memcpy+0x18>
    3db6:	8082                	ret

00003db8 <iprintf>:
    3db8:	7139                	addi	sp,sp,-64
    3dba:	da3e                	sw	a5,52(sp)
    3dbc:	d22e                	sw	a1,36(sp)
    3dbe:	d432                	sw	a2,40(sp)
    3dc0:	d636                	sw	a3,44(sp)
    3dc2:	d83a                	sw	a4,48(sp)
    3dc4:	dc42                	sw	a6,56(sp)
    3dc6:	de46                	sw	a7,60(sp)
    3dc8:	80c18793          	addi	a5,gp,-2036 # 200000b4 <_impure_ptr>
    3dcc:	cc22                	sw	s0,24(sp)
    3dce:	4380                	lw	s0,0(a5)
    3dd0:	ca26                	sw	s1,20(sp)
    3dd2:	ce06                	sw	ra,28(sp)
    3dd4:	84aa                	mv	s1,a0
    3dd6:	c409                	beqz	s0,3de0 <iprintf+0x28>
    3dd8:	4c1c                	lw	a5,24(s0)
    3dda:	e399                	bnez	a5,3de0 <iprintf+0x28>
    3ddc:	8522                	mv	a0,s0
    3dde:	29ed                	jal	42d8 <__sinit>
    3de0:	440c                	lw	a1,8(s0)
    3de2:	1054                	addi	a3,sp,36
    3de4:	8626                	mv	a2,s1
    3de6:	8522                	mv	a0,s0
    3de8:	c636                	sw	a3,12(sp)
    3dea:	127000ef          	jal	ra,4710 <_vfiprintf_r>
    3dee:	40f2                	lw	ra,28(sp)
    3df0:	4462                	lw	s0,24(sp)
    3df2:	44d2                	lw	s1,20(sp)
    3df4:	6121                	addi	sp,sp,64
    3df6:	8082                	ret

00003df8 <_puts_r>:
    3df8:	1101                	addi	sp,sp,-32
    3dfa:	ca26                	sw	s1,20(sp)
    3dfc:	c84a                	sw	s2,16(sp)
    3dfe:	ce06                	sw	ra,28(sp)
    3e00:	cc22                	sw	s0,24(sp)
    3e02:	c64e                	sw	s3,12(sp)
    3e04:	c452                	sw	s4,8(sp)
    3e06:	84aa                	mv	s1,a0
    3e08:	892e                	mv	s2,a1
    3e0a:	c501                	beqz	a0,3e12 <_puts_r+0x1a>
    3e0c:	4d1c                	lw	a5,24(a0)
    3e0e:	e391                	bnez	a5,3e12 <_puts_r+0x1a>
    3e10:	21e1                	jal	42d8 <__sinit>
    3e12:	4c9c                	lw	a5,24(s1)
    3e14:	4480                	lw	s0,8(s1)
    3e16:	e399                	bnez	a5,3e1c <_puts_r+0x24>
    3e18:	8526                	mv	a0,s1
    3e1a:	297d                	jal	42d8 <__sinit>
    3e1c:	00001797          	auipc	a5,0x1
    3e20:	3e078793          	addi	a5,a5,992 # 51fc <__sf_fake_stdin>
    3e24:	02f41b63          	bne	s0,a5,3e5a <_puts_r+0x62>
    3e28:	40c0                	lw	s0,4(s1)
    3e2a:	245e                	lhu	a5,12(s0)
    3e2c:	8ba1                	andi	a5,a5,8
    3e2e:	c7b1                	beqz	a5,3e7a <_puts_r+0x82>
    3e30:	481c                	lw	a5,16(s0)
    3e32:	c7a1                	beqz	a5,3e7a <_puts_r+0x82>
    3e34:	59fd                	li	s3,-1
    3e36:	4a29                	li	s4,10
    3e38:	441c                	lw	a5,8(s0)
    3e3a:	00094583          	lbu	a1,0(s2)
    3e3e:	17fd                	addi	a5,a5,-1
    3e40:	e9b1                	bnez	a1,3e94 <_puts_r+0x9c>
    3e42:	c41c                	sw	a5,8(s0)
    3e44:	0607dd63          	bgez	a5,3ebe <_puts_r+0xc6>
    3e48:	8622                	mv	a2,s0
    3e4a:	45a9                	li	a1,10
    3e4c:	8526                	mv	a0,s1
    3e4e:	2061                	jal	3ed6 <__swbuf_r>
    3e50:	57fd                	li	a5,-1
    3e52:	02f50863          	beq	a0,a5,3e82 <_puts_r+0x8a>
    3e56:	4529                	li	a0,10
    3e58:	a035                	j	3e84 <_puts_r+0x8c>
    3e5a:	00001797          	auipc	a5,0x1
    3e5e:	3c278793          	addi	a5,a5,962 # 521c <__sf_fake_stdout>
    3e62:	00f41463          	bne	s0,a5,3e6a <_puts_r+0x72>
    3e66:	4480                	lw	s0,8(s1)
    3e68:	b7c9                	j	3e2a <_puts_r+0x32>
    3e6a:	00001797          	auipc	a5,0x1
    3e6e:	37278793          	addi	a5,a5,882 # 51dc <__sf_fake_stderr>
    3e72:	faf41ce3          	bne	s0,a5,3e2a <_puts_r+0x32>
    3e76:	44c0                	lw	s0,12(s1)
    3e78:	bf4d                	j	3e2a <_puts_r+0x32>
    3e7a:	85a2                	mv	a1,s0
    3e7c:	8526                	mv	a0,s1
    3e7e:	2a11                	jal	3f92 <__swsetup_r>
    3e80:	d955                	beqz	a0,3e34 <_puts_r+0x3c>
    3e82:	557d                	li	a0,-1
    3e84:	40f2                	lw	ra,28(sp)
    3e86:	4462                	lw	s0,24(sp)
    3e88:	44d2                	lw	s1,20(sp)
    3e8a:	4942                	lw	s2,16(sp)
    3e8c:	49b2                	lw	s3,12(sp)
    3e8e:	4a22                	lw	s4,8(sp)
    3e90:	6105                	addi	sp,sp,32
    3e92:	8082                	ret
    3e94:	c41c                	sw	a5,8(s0)
    3e96:	0905                	addi	s2,s2,1
    3e98:	0007d763          	bgez	a5,3ea6 <_puts_r+0xae>
    3e9c:	4c18                	lw	a4,24(s0)
    3e9e:	00e7ca63          	blt	a5,a4,3eb2 <_puts_r+0xba>
    3ea2:	01458863          	beq	a1,s4,3eb2 <_puts_r+0xba>
    3ea6:	401c                	lw	a5,0(s0)
    3ea8:	00178713          	addi	a4,a5,1
    3eac:	c018                	sw	a4,0(s0)
    3eae:	a38c                	sb	a1,0(a5)
    3eb0:	b761                	j	3e38 <_puts_r+0x40>
    3eb2:	8622                	mv	a2,s0
    3eb4:	8526                	mv	a0,s1
    3eb6:	2005                	jal	3ed6 <__swbuf_r>
    3eb8:	f93510e3          	bne	a0,s3,3e38 <_puts_r+0x40>
    3ebc:	b7d9                	j	3e82 <_puts_r+0x8a>
    3ebe:	401c                	lw	a5,0(s0)
    3ec0:	00178713          	addi	a4,a5,1
    3ec4:	c018                	sw	a4,0(s0)
    3ec6:	4729                	li	a4,10
    3ec8:	a398                	sb	a4,0(a5)
    3eca:	b771                	j	3e56 <_puts_r+0x5e>

00003ecc <puts>:
    3ecc:	80c18793          	addi	a5,gp,-2036 # 200000b4 <_impure_ptr>
    3ed0:	85aa                	mv	a1,a0
    3ed2:	4388                	lw	a0,0(a5)
    3ed4:	b715                	j	3df8 <_puts_r>

00003ed6 <__swbuf_r>:
    3ed6:	1101                	addi	sp,sp,-32
    3ed8:	cc22                	sw	s0,24(sp)
    3eda:	ca26                	sw	s1,20(sp)
    3edc:	c84a                	sw	s2,16(sp)
    3ede:	ce06                	sw	ra,28(sp)
    3ee0:	c64e                	sw	s3,12(sp)
    3ee2:	84aa                	mv	s1,a0
    3ee4:	892e                	mv	s2,a1
    3ee6:	8432                	mv	s0,a2
    3ee8:	c501                	beqz	a0,3ef0 <__swbuf_r+0x1a>
    3eea:	4d1c                	lw	a5,24(a0)
    3eec:	e391                	bnez	a5,3ef0 <__swbuf_r+0x1a>
    3eee:	26ed                	jal	42d8 <__sinit>
    3ef0:	00001797          	auipc	a5,0x1
    3ef4:	30c78793          	addi	a5,a5,780 # 51fc <__sf_fake_stdin>
    3ef8:	06f41763          	bne	s0,a5,3f66 <__swbuf_r+0x90>
    3efc:	40c0                	lw	s0,4(s1)
    3efe:	4c1c                	lw	a5,24(s0)
    3f00:	c41c                	sw	a5,8(s0)
    3f02:	245e                	lhu	a5,12(s0)
    3f04:	8ba1                	andi	a5,a5,8
    3f06:	c3c1                	beqz	a5,3f86 <__swbuf_r+0xb0>
    3f08:	481c                	lw	a5,16(s0)
    3f0a:	cfb5                	beqz	a5,3f86 <__swbuf_r+0xb0>
    3f0c:	481c                	lw	a5,16(s0)
    3f0e:	4008                	lw	a0,0(s0)
    3f10:	0ff97993          	andi	s3,s2,255
    3f14:	0ff97913          	andi	s2,s2,255
    3f18:	8d1d                	sub	a0,a0,a5
    3f1a:	485c                	lw	a5,20(s0)
    3f1c:	00f54663          	blt	a0,a5,3f28 <__swbuf_r+0x52>
    3f20:	85a2                	mv	a1,s0
    3f22:	8526                	mv	a0,s1
    3f24:	2c69                	jal	41be <_fflush_r>
    3f26:	e525                	bnez	a0,3f8e <__swbuf_r+0xb8>
    3f28:	441c                	lw	a5,8(s0)
    3f2a:	0505                	addi	a0,a0,1
    3f2c:	17fd                	addi	a5,a5,-1
    3f2e:	c41c                	sw	a5,8(s0)
    3f30:	401c                	lw	a5,0(s0)
    3f32:	00178713          	addi	a4,a5,1
    3f36:	c018                	sw	a4,0(s0)
    3f38:	01378023          	sb	s3,0(a5)
    3f3c:	485c                	lw	a5,20(s0)
    3f3e:	00a78863          	beq	a5,a0,3f4e <__swbuf_r+0x78>
    3f42:	245e                	lhu	a5,12(s0)
    3f44:	8b85                	andi	a5,a5,1
    3f46:	cb81                	beqz	a5,3f56 <__swbuf_r+0x80>
    3f48:	47a9                	li	a5,10
    3f4a:	00f91663          	bne	s2,a5,3f56 <__swbuf_r+0x80>
    3f4e:	85a2                	mv	a1,s0
    3f50:	8526                	mv	a0,s1
    3f52:	24b5                	jal	41be <_fflush_r>
    3f54:	ed0d                	bnez	a0,3f8e <__swbuf_r+0xb8>
    3f56:	40f2                	lw	ra,28(sp)
    3f58:	4462                	lw	s0,24(sp)
    3f5a:	854a                	mv	a0,s2
    3f5c:	44d2                	lw	s1,20(sp)
    3f5e:	4942                	lw	s2,16(sp)
    3f60:	49b2                	lw	s3,12(sp)
    3f62:	6105                	addi	sp,sp,32
    3f64:	8082                	ret
    3f66:	00001797          	auipc	a5,0x1
    3f6a:	2b678793          	addi	a5,a5,694 # 521c <__sf_fake_stdout>
    3f6e:	00f41463          	bne	s0,a5,3f76 <__swbuf_r+0xa0>
    3f72:	4480                	lw	s0,8(s1)
    3f74:	b769                	j	3efe <__swbuf_r+0x28>
    3f76:	00001797          	auipc	a5,0x1
    3f7a:	26678793          	addi	a5,a5,614 # 51dc <__sf_fake_stderr>
    3f7e:	f8f410e3          	bne	s0,a5,3efe <__swbuf_r+0x28>
    3f82:	44c0                	lw	s0,12(s1)
    3f84:	bfad                	j	3efe <__swbuf_r+0x28>
    3f86:	85a2                	mv	a1,s0
    3f88:	8526                	mv	a0,s1
    3f8a:	2021                	jal	3f92 <__swsetup_r>
    3f8c:	d141                	beqz	a0,3f0c <__swbuf_r+0x36>
    3f8e:	597d                	li	s2,-1
    3f90:	b7d9                	j	3f56 <__swbuf_r+0x80>

00003f92 <__swsetup_r>:
    3f92:	1141                	addi	sp,sp,-16
    3f94:	80c18793          	addi	a5,gp,-2036 # 200000b4 <_impure_ptr>
    3f98:	c226                	sw	s1,4(sp)
    3f9a:	4384                	lw	s1,0(a5)
    3f9c:	c422                	sw	s0,8(sp)
    3f9e:	c04a                	sw	s2,0(sp)
    3fa0:	c606                	sw	ra,12(sp)
    3fa2:	892a                	mv	s2,a0
    3fa4:	842e                	mv	s0,a1
    3fa6:	c489                	beqz	s1,3fb0 <__swsetup_r+0x1e>
    3fa8:	4c9c                	lw	a5,24(s1)
    3faa:	e399                	bnez	a5,3fb0 <__swsetup_r+0x1e>
    3fac:	8526                	mv	a0,s1
    3fae:	262d                	jal	42d8 <__sinit>
    3fb0:	00001797          	auipc	a5,0x1
    3fb4:	24c78793          	addi	a5,a5,588 # 51fc <__sf_fake_stdin>
    3fb8:	02f41b63          	bne	s0,a5,3fee <__swsetup_r+0x5c>
    3fbc:	40c0                	lw	s0,4(s1)
    3fbe:	00c41703          	lh	a4,12(s0)
    3fc2:	01071793          	slli	a5,a4,0x10
    3fc6:	83c1                	srli	a5,a5,0x10
    3fc8:	0087f693          	andi	a3,a5,8
    3fcc:	eaad                	bnez	a3,403e <__swsetup_r+0xac>
    3fce:	0107f693          	andi	a3,a5,16
    3fd2:	ee95                	bnez	a3,400e <__swsetup_r+0x7c>
    3fd4:	47a5                	li	a5,9
    3fd6:	00f92023          	sw	a5,0(s2)
    3fda:	04076713          	ori	a4,a4,64
    3fde:	a45a                	sh	a4,12(s0)
    3fe0:	557d                	li	a0,-1
    3fe2:	40b2                	lw	ra,12(sp)
    3fe4:	4422                	lw	s0,8(sp)
    3fe6:	4492                	lw	s1,4(sp)
    3fe8:	4902                	lw	s2,0(sp)
    3fea:	0141                	addi	sp,sp,16
    3fec:	8082                	ret
    3fee:	00001797          	auipc	a5,0x1
    3ff2:	22e78793          	addi	a5,a5,558 # 521c <__sf_fake_stdout>
    3ff6:	00f41463          	bne	s0,a5,3ffe <__swsetup_r+0x6c>
    3ffa:	4480                	lw	s0,8(s1)
    3ffc:	b7c9                	j	3fbe <__swsetup_r+0x2c>
    3ffe:	00001797          	auipc	a5,0x1
    4002:	1de78793          	addi	a5,a5,478 # 51dc <__sf_fake_stderr>
    4006:	faf41ce3          	bne	s0,a5,3fbe <__swsetup_r+0x2c>
    400a:	44c0                	lw	s0,12(s1)
    400c:	bf4d                	j	3fbe <__swsetup_r+0x2c>
    400e:	8b91                	andi	a5,a5,4
    4010:	c39d                	beqz	a5,4036 <__swsetup_r+0xa4>
    4012:	584c                	lw	a1,52(s0)
    4014:	c989                	beqz	a1,4026 <__swsetup_r+0x94>
    4016:	04440793          	addi	a5,s0,68
    401a:	00f58463          	beq	a1,a5,4022 <__swsetup_r+0x90>
    401e:	854a                	mv	a0,s2
    4020:	2331                	jal	452c <_free_r>
    4022:	02042a23          	sw	zero,52(s0)
    4026:	245e                	lhu	a5,12(s0)
    4028:	00042223          	sw	zero,4(s0)
    402c:	fdb7f793          	andi	a5,a5,-37
    4030:	a45e                	sh	a5,12(s0)
    4032:	481c                	lw	a5,16(s0)
    4034:	c01c                	sw	a5,0(s0)
    4036:	245e                	lhu	a5,12(s0)
    4038:	0087e793          	ori	a5,a5,8
    403c:	a45e                	sh	a5,12(s0)
    403e:	481c                	lw	a5,16(s0)
    4040:	eb99                	bnez	a5,4056 <__swsetup_r+0xc4>
    4042:	245e                	lhu	a5,12(s0)
    4044:	20000713          	li	a4,512
    4048:	2807f793          	andi	a5,a5,640
    404c:	00e78563          	beq	a5,a4,4056 <__swsetup_r+0xc4>
    4050:	85a2                	mv	a1,s0
    4052:	854a                	mv	a0,s2
    4054:	21a1                	jal	449c <__smakebuf_r>
    4056:	245e                	lhu	a5,12(s0)
    4058:	0017f713          	andi	a4,a5,1
    405c:	c31d                	beqz	a4,4082 <__swsetup_r+0xf0>
    405e:	485c                	lw	a5,20(s0)
    4060:	00042423          	sw	zero,8(s0)
    4064:	40f007b3          	neg	a5,a5
    4068:	cc1c                	sw	a5,24(s0)
    406a:	481c                	lw	a5,16(s0)
    406c:	4501                	li	a0,0
    406e:	fbb5                	bnez	a5,3fe2 <__swsetup_r+0x50>
    4070:	00c41783          	lh	a5,12(s0)
    4074:	0807f713          	andi	a4,a5,128
    4078:	d72d                	beqz	a4,3fe2 <__swsetup_r+0x50>
    407a:	0407e793          	ori	a5,a5,64
    407e:	a45e                	sh	a5,12(s0)
    4080:	b785                	j	3fe0 <__swsetup_r+0x4e>
    4082:	8b89                	andi	a5,a5,2
    4084:	4701                	li	a4,0
    4086:	e391                	bnez	a5,408a <__swsetup_r+0xf8>
    4088:	4858                	lw	a4,20(s0)
    408a:	c418                	sw	a4,8(s0)
    408c:	bff9                	j	406a <__swsetup_r+0xd8>

0000408e <__sflush_r>:
    408e:	25de                	lhu	a5,12(a1)
    4090:	1101                	addi	sp,sp,-32
    4092:	cc22                	sw	s0,24(sp)
    4094:	ca26                	sw	s1,20(sp)
    4096:	ce06                	sw	ra,28(sp)
    4098:	c84a                	sw	s2,16(sp)
    409a:	c64e                	sw	s3,12(sp)
    409c:	0087f713          	andi	a4,a5,8
    40a0:	84aa                	mv	s1,a0
    40a2:	842e                	mv	s0,a1
    40a4:	eb79                	bnez	a4,417a <__sflush_r+0xec>
    40a6:	41d8                	lw	a4,4(a1)
    40a8:	00e04d63          	bgtz	a4,40c2 <__sflush_r+0x34>
    40ac:	41b8                	lw	a4,64(a1)
    40ae:	00e04a63          	bgtz	a4,40c2 <__sflush_r+0x34>
    40b2:	4501                	li	a0,0
    40b4:	40f2                	lw	ra,28(sp)
    40b6:	4462                	lw	s0,24(sp)
    40b8:	44d2                	lw	s1,20(sp)
    40ba:	4942                	lw	s2,16(sp)
    40bc:	49b2                	lw	s3,12(sp)
    40be:	6105                	addi	sp,sp,32
    40c0:	8082                	ret
    40c2:	5458                	lw	a4,44(s0)
    40c4:	d77d                	beqz	a4,40b2 <__sflush_r+0x24>
    40c6:	0004a903          	lw	s2,0(s1)
    40ca:	01379693          	slli	a3,a5,0x13
    40ce:	0004a023          	sw	zero,0(s1)
    40d2:	0606db63          	bgez	a3,4148 <__sflush_r+0xba>
    40d6:	4870                	lw	a2,84(s0)
    40d8:	245e                	lhu	a5,12(s0)
    40da:	8b91                	andi	a5,a5,4
    40dc:	c799                	beqz	a5,40ea <__sflush_r+0x5c>
    40de:	405c                	lw	a5,4(s0)
    40e0:	8e1d                	sub	a2,a2,a5
    40e2:	585c                	lw	a5,52(s0)
    40e4:	c399                	beqz	a5,40ea <__sflush_r+0x5c>
    40e6:	403c                	lw	a5,64(s0)
    40e8:	8e1d                	sub	a2,a2,a5
    40ea:	545c                	lw	a5,44(s0)
    40ec:	500c                	lw	a1,32(s0)
    40ee:	4681                	li	a3,0
    40f0:	8526                	mv	a0,s1
    40f2:	9782                	jalr	a5
    40f4:	57fd                	li	a5,-1
    40f6:	245a                	lhu	a4,12(s0)
    40f8:	00f51d63          	bne	a0,a5,4112 <__sflush_r+0x84>
    40fc:	4094                	lw	a3,0(s1)
    40fe:	47f5                	li	a5,29
    4100:	06d7e863          	bltu	a5,a3,4170 <__sflush_r+0xe2>
    4104:	204007b7          	lui	a5,0x20400
    4108:	0785                	addi	a5,a5,1
    410a:	00d7d7b3          	srl	a5,a5,a3
    410e:	8b85                	andi	a5,a5,1
    4110:	c3a5                	beqz	a5,4170 <__sflush_r+0xe2>
    4112:	481c                	lw	a5,16(s0)
    4114:	00042223          	sw	zero,4(s0)
    4118:	c01c                	sw	a5,0(s0)
    411a:	01371793          	slli	a5,a4,0x13
    411e:	0007d863          	bgez	a5,412e <__sflush_r+0xa0>
    4122:	57fd                	li	a5,-1
    4124:	00f51463          	bne	a0,a5,412c <__sflush_r+0x9e>
    4128:	409c                	lw	a5,0(s1)
    412a:	e391                	bnez	a5,412e <__sflush_r+0xa0>
    412c:	c868                	sw	a0,84(s0)
    412e:	584c                	lw	a1,52(s0)
    4130:	0124a023          	sw	s2,0(s1)
    4134:	ddbd                	beqz	a1,40b2 <__sflush_r+0x24>
    4136:	04440793          	addi	a5,s0,68
    413a:	00f58463          	beq	a1,a5,4142 <__sflush_r+0xb4>
    413e:	8526                	mv	a0,s1
    4140:	26f5                	jal	452c <_free_r>
    4142:	02042a23          	sw	zero,52(s0)
    4146:	b7b5                	j	40b2 <__sflush_r+0x24>
    4148:	500c                	lw	a1,32(s0)
    414a:	4601                	li	a2,0
    414c:	4685                	li	a3,1
    414e:	8526                	mv	a0,s1
    4150:	9702                	jalr	a4
    4152:	57fd                	li	a5,-1
    4154:	862a                	mv	a2,a0
    4156:	f8f511e3          	bne	a0,a5,40d8 <__sflush_r+0x4a>
    415a:	409c                	lw	a5,0(s1)
    415c:	dfb5                	beqz	a5,40d8 <__sflush_r+0x4a>
    415e:	4775                	li	a4,29
    4160:	00e78563          	beq	a5,a4,416a <__sflush_r+0xdc>
    4164:	4759                	li	a4,22
    4166:	04e79363          	bne	a5,a4,41ac <__sflush_r+0x11e>
    416a:	0124a023          	sw	s2,0(s1)
    416e:	b791                	j	40b2 <__sflush_r+0x24>
    4170:	04076713          	ori	a4,a4,64
    4174:	a45a                	sh	a4,12(s0)
    4176:	557d                	li	a0,-1
    4178:	bf35                	j	40b4 <__sflush_r+0x26>
    417a:	0105a983          	lw	s3,16(a1)
    417e:	f2098ae3          	beqz	s3,40b2 <__sflush_r+0x24>
    4182:	0005a903          	lw	s2,0(a1)
    4186:	8b8d                	andi	a5,a5,3
    4188:	0135a023          	sw	s3,0(a1)
    418c:	41390933          	sub	s2,s2,s3
    4190:	4701                	li	a4,0
    4192:	e391                	bnez	a5,4196 <__sflush_r+0x108>
    4194:	49d8                	lw	a4,20(a1)
    4196:	c418                	sw	a4,8(s0)
    4198:	f1205de3          	blez	s2,40b2 <__sflush_r+0x24>
    419c:	541c                	lw	a5,40(s0)
    419e:	500c                	lw	a1,32(s0)
    41a0:	86ca                	mv	a3,s2
    41a2:	864e                	mv	a2,s3
    41a4:	8526                	mv	a0,s1
    41a6:	9782                	jalr	a5
    41a8:	00a04763          	bgtz	a0,41b6 <__sflush_r+0x128>
    41ac:	245e                	lhu	a5,12(s0)
    41ae:	0407e793          	ori	a5,a5,64
    41b2:	a45e                	sh	a5,12(s0)
    41b4:	b7c9                	j	4176 <__sflush_r+0xe8>
    41b6:	99aa                	add	s3,s3,a0
    41b8:	40a90933          	sub	s2,s2,a0
    41bc:	bff1                	j	4198 <__sflush_r+0x10a>

000041be <_fflush_r>:
    41be:	499c                	lw	a5,16(a1)
    41c0:	cfb9                	beqz	a5,421e <_fflush_r+0x60>
    41c2:	1101                	addi	sp,sp,-32
    41c4:	cc22                	sw	s0,24(sp)
    41c6:	ce06                	sw	ra,28(sp)
    41c8:	842a                	mv	s0,a0
    41ca:	c511                	beqz	a0,41d6 <_fflush_r+0x18>
    41cc:	4d1c                	lw	a5,24(a0)
    41ce:	e781                	bnez	a5,41d6 <_fflush_r+0x18>
    41d0:	c62e                	sw	a1,12(sp)
    41d2:	2219                	jal	42d8 <__sinit>
    41d4:	45b2                	lw	a1,12(sp)
    41d6:	00001797          	auipc	a5,0x1
    41da:	02678793          	addi	a5,a5,38 # 51fc <__sf_fake_stdin>
    41de:	00f59b63          	bne	a1,a5,41f4 <_fflush_r+0x36>
    41e2:	404c                	lw	a1,4(s0)
    41e4:	00c59783          	lh	a5,12(a1)
    41e8:	c795                	beqz	a5,4214 <_fflush_r+0x56>
    41ea:	8522                	mv	a0,s0
    41ec:	4462                	lw	s0,24(sp)
    41ee:	40f2                	lw	ra,28(sp)
    41f0:	6105                	addi	sp,sp,32
    41f2:	bd71                	j	408e <__sflush_r>
    41f4:	00001797          	auipc	a5,0x1
    41f8:	02878793          	addi	a5,a5,40 # 521c <__sf_fake_stdout>
    41fc:	00f59463          	bne	a1,a5,4204 <_fflush_r+0x46>
    4200:	440c                	lw	a1,8(s0)
    4202:	b7cd                	j	41e4 <_fflush_r+0x26>
    4204:	00001797          	auipc	a5,0x1
    4208:	fd878793          	addi	a5,a5,-40 # 51dc <__sf_fake_stderr>
    420c:	fcf59ce3          	bne	a1,a5,41e4 <_fflush_r+0x26>
    4210:	444c                	lw	a1,12(s0)
    4212:	bfc9                	j	41e4 <_fflush_r+0x26>
    4214:	40f2                	lw	ra,28(sp)
    4216:	4462                	lw	s0,24(sp)
    4218:	4501                	li	a0,0
    421a:	6105                	addi	sp,sp,32
    421c:	8082                	ret
    421e:	4501                	li	a0,0
    4220:	8082                	ret

00004222 <std>:
    4222:	1141                	addi	sp,sp,-16
    4224:	c422                	sw	s0,8(sp)
    4226:	c606                	sw	ra,12(sp)
    4228:	842a                	mv	s0,a0
    422a:	a54e                	sh	a1,12(a0)
    422c:	a572                	sh	a2,14(a0)
    422e:	00052023          	sw	zero,0(a0)
    4232:	00052223          	sw	zero,4(a0)
    4236:	00052423          	sw	zero,8(a0)
    423a:	06052223          	sw	zero,100(a0)
    423e:	00052823          	sw	zero,16(a0)
    4242:	00052a23          	sw	zero,20(a0)
    4246:	00052c23          	sw	zero,24(a0)
    424a:	4621                	li	a2,8
    424c:	4581                	li	a1,0
    424e:	05c50513          	addi	a0,a0,92
    4252:	f6ffb0ef          	jal	ra,1c0 <memset>
    4256:	00001797          	auipc	a5,0x1
    425a:	b1878793          	addi	a5,a5,-1256 # 4d6e <__sread>
    425e:	d05c                	sw	a5,36(s0)
    4260:	00001797          	auipc	a5,0x1
    4264:	b3a78793          	addi	a5,a5,-1222 # 4d9a <__swrite>
    4268:	d41c                	sw	a5,40(s0)
    426a:	00001797          	auipc	a5,0x1
    426e:	b7878793          	addi	a5,a5,-1160 # 4de2 <__sseek>
    4272:	d45c                	sw	a5,44(s0)
    4274:	00001797          	auipc	a5,0x1
    4278:	b9e78793          	addi	a5,a5,-1122 # 4e12 <__sclose>
    427c:	d000                	sw	s0,32(s0)
    427e:	d81c                	sw	a5,48(s0)
    4280:	40b2                	lw	ra,12(sp)
    4282:	4422                	lw	s0,8(sp)
    4284:	0141                	addi	sp,sp,16
    4286:	8082                	ret

00004288 <_cleanup_r>:
    4288:	00000597          	auipc	a1,0x0
    428c:	f3658593          	addi	a1,a1,-202 # 41be <_fflush_r>
    4290:	a2a9                	j	43da <_fwalk_reent>

00004292 <__sfmoreglue>:
    4292:	1141                	addi	sp,sp,-16
    4294:	c226                	sw	s1,4(sp)
    4296:	06800613          	li	a2,104
    429a:	fff58493          	addi	s1,a1,-1
    429e:	02c484b3          	mul	s1,s1,a2
    42a2:	c04a                	sw	s2,0(sp)
    42a4:	892e                	mv	s2,a1
    42a6:	c422                	sw	s0,8(sp)
    42a8:	c606                	sw	ra,12(sp)
    42aa:	07448593          	addi	a1,s1,116
    42ae:	261d                	jal	45d4 <_malloc_r>
    42b0:	842a                	mv	s0,a0
    42b2:	cd01                	beqz	a0,42ca <__sfmoreglue+0x38>
    42b4:	00052023          	sw	zero,0(a0)
    42b8:	01252223          	sw	s2,4(a0)
    42bc:	0531                	addi	a0,a0,12
    42be:	c408                	sw	a0,8(s0)
    42c0:	06848613          	addi	a2,s1,104
    42c4:	4581                	li	a1,0
    42c6:	efbfb0ef          	jal	ra,1c0 <memset>
    42ca:	8522                	mv	a0,s0
    42cc:	40b2                	lw	ra,12(sp)
    42ce:	4422                	lw	s0,8(sp)
    42d0:	4492                	lw	s1,4(sp)
    42d2:	4902                	lw	s2,0(sp)
    42d4:	0141                	addi	sp,sp,16
    42d6:	8082                	ret

000042d8 <__sinit>:
    42d8:	4d1c                	lw	a5,24(a0)
    42da:	e3ad                	bnez	a5,433c <__sinit+0x64>
    42dc:	1141                	addi	sp,sp,-16
    42de:	c606                	sw	ra,12(sp)
    42e0:	c422                	sw	s0,8(sp)
    42e2:	00000797          	auipc	a5,0x0
    42e6:	fa678793          	addi	a5,a5,-90 # 4288 <_cleanup_r>
    42ea:	d51c                	sw	a5,40(a0)
    42ec:	81418793          	addi	a5,gp,-2028 # 200000bc <_global_impure_ptr>
    42f0:	439c                	lw	a5,0(a5)
    42f2:	04052423          	sw	zero,72(a0)
    42f6:	04052623          	sw	zero,76(a0)
    42fa:	04052823          	sw	zero,80(a0)
    42fe:	00f51463          	bne	a0,a5,4306 <__sinit+0x2e>
    4302:	4785                	li	a5,1
    4304:	cd1c                	sw	a5,24(a0)
    4306:	842a                	mv	s0,a0
    4308:	281d                	jal	433e <__sfp>
    430a:	c048                	sw	a0,4(s0)
    430c:	8522                	mv	a0,s0
    430e:	2805                	jal	433e <__sfp>
    4310:	c408                	sw	a0,8(s0)
    4312:	8522                	mv	a0,s0
    4314:	202d                	jal	433e <__sfp>
    4316:	c448                	sw	a0,12(s0)
    4318:	4048                	lw	a0,4(s0)
    431a:	4601                	li	a2,0
    431c:	4591                	li	a1,4
    431e:	3711                	jal	4222 <std>
    4320:	4408                	lw	a0,8(s0)
    4322:	4605                	li	a2,1
    4324:	45a5                	li	a1,9
    4326:	3df5                	jal	4222 <std>
    4328:	4448                	lw	a0,12(s0)
    432a:	4609                	li	a2,2
    432c:	45c9                	li	a1,18
    432e:	3dd5                	jal	4222 <std>
    4330:	4785                	li	a5,1
    4332:	cc1c                	sw	a5,24(s0)
    4334:	40b2                	lw	ra,12(sp)
    4336:	4422                	lw	s0,8(sp)
    4338:	0141                	addi	sp,sp,16
    433a:	8082                	ret
    433c:	8082                	ret

0000433e <__sfp>:
    433e:	1141                	addi	sp,sp,-16
    4340:	81418793          	addi	a5,gp,-2028 # 200000bc <_global_impure_ptr>
    4344:	c226                	sw	s1,4(sp)
    4346:	4384                	lw	s1,0(a5)
    4348:	c04a                	sw	s2,0(sp)
    434a:	c606                	sw	ra,12(sp)
    434c:	4c9c                	lw	a5,24(s1)
    434e:	c422                	sw	s0,8(sp)
    4350:	892a                	mv	s2,a0
    4352:	e399                	bnez	a5,4358 <__sfp+0x1a>
    4354:	8526                	mv	a0,s1
    4356:	3749                	jal	42d8 <__sinit>
    4358:	04848493          	addi	s1,s1,72
    435c:	4480                	lw	s0,8(s1)
    435e:	40dc                	lw	a5,4(s1)
    4360:	17fd                	addi	a5,a5,-1
    4362:	0007d663          	bgez	a5,436e <__sfp+0x30>
    4366:	409c                	lw	a5,0(s1)
    4368:	cfb9                	beqz	a5,43c6 <__sfp+0x88>
    436a:	4084                	lw	s1,0(s1)
    436c:	bfc5                	j	435c <__sfp+0x1e>
    436e:	00c41703          	lh	a4,12(s0)
    4372:	e739                	bnez	a4,43c0 <__sfp+0x82>
    4374:	77c1                	lui	a5,0xffff0
    4376:	0785                	addi	a5,a5,1
    4378:	06042223          	sw	zero,100(s0)
    437c:	00042023          	sw	zero,0(s0)
    4380:	00042223          	sw	zero,4(s0)
    4384:	00042423          	sw	zero,8(s0)
    4388:	c45c                	sw	a5,12(s0)
    438a:	00042823          	sw	zero,16(s0)
    438e:	00042a23          	sw	zero,20(s0)
    4392:	00042c23          	sw	zero,24(s0)
    4396:	4621                	li	a2,8
    4398:	4581                	li	a1,0
    439a:	05c40513          	addi	a0,s0,92
    439e:	e23fb0ef          	jal	ra,1c0 <memset>
    43a2:	02042a23          	sw	zero,52(s0)
    43a6:	02042c23          	sw	zero,56(s0)
    43aa:	04042423          	sw	zero,72(s0)
    43ae:	04042623          	sw	zero,76(s0)
    43b2:	8522                	mv	a0,s0
    43b4:	40b2                	lw	ra,12(sp)
    43b6:	4422                	lw	s0,8(sp)
    43b8:	4492                	lw	s1,4(sp)
    43ba:	4902                	lw	s2,0(sp)
    43bc:	0141                	addi	sp,sp,16
    43be:	8082                	ret
    43c0:	06840413          	addi	s0,s0,104
    43c4:	bf71                	j	4360 <__sfp+0x22>
    43c6:	4591                	li	a1,4
    43c8:	854a                	mv	a0,s2
    43ca:	35e1                	jal	4292 <__sfmoreglue>
    43cc:	c088                	sw	a0,0(s1)
    43ce:	fd51                	bnez	a0,436a <__sfp+0x2c>
    43d0:	47b1                	li	a5,12
    43d2:	00f92023          	sw	a5,0(s2)
    43d6:	4401                	li	s0,0
    43d8:	bfe9                	j	43b2 <__sfp+0x74>

000043da <_fwalk_reent>:
    43da:	7179                	addi	sp,sp,-48
    43dc:	d422                	sw	s0,40(sp)
    43de:	d04a                	sw	s2,32(sp)
    43e0:	cc52                	sw	s4,24(sp)
    43e2:	ca56                	sw	s5,20(sp)
    43e4:	c85a                	sw	s6,16(sp)
    43e6:	c65e                	sw	s7,12(sp)
    43e8:	d606                	sw	ra,44(sp)
    43ea:	d226                	sw	s1,36(sp)
    43ec:	ce4e                	sw	s3,28(sp)
    43ee:	8a2a                	mv	s4,a0
    43f0:	8aae                	mv	s5,a1
    43f2:	04850413          	addi	s0,a0,72
    43f6:	4901                	li	s2,0
    43f8:	4b05                	li	s6,1
    43fa:	5bfd                	li	s7,-1
    43fc:	ec09                	bnez	s0,4416 <_fwalk_reent+0x3c>
    43fe:	50b2                	lw	ra,44(sp)
    4400:	5422                	lw	s0,40(sp)
    4402:	854a                	mv	a0,s2
    4404:	5492                	lw	s1,36(sp)
    4406:	5902                	lw	s2,32(sp)
    4408:	49f2                	lw	s3,28(sp)
    440a:	4a62                	lw	s4,24(sp)
    440c:	4ad2                	lw	s5,20(sp)
    440e:	4b42                	lw	s6,16(sp)
    4410:	4bb2                	lw	s7,12(sp)
    4412:	6145                	addi	sp,sp,48
    4414:	8082                	ret
    4416:	4404                	lw	s1,8(s0)
    4418:	00442983          	lw	s3,4(s0)
    441c:	19fd                	addi	s3,s3,-1
    441e:	0009d463          	bgez	s3,4426 <_fwalk_reent+0x4c>
    4422:	4000                	lw	s0,0(s0)
    4424:	bfe1                	j	43fc <_fwalk_reent+0x22>
    4426:	24de                	lhu	a5,12(s1)
    4428:	00fb7b63          	bgeu	s6,a5,443e <_fwalk_reent+0x64>
    442c:	00e49783          	lh	a5,14(s1)
    4430:	01778763          	beq	a5,s7,443e <_fwalk_reent+0x64>
    4434:	85a6                	mv	a1,s1
    4436:	8552                	mv	a0,s4
    4438:	9a82                	jalr	s5
    443a:	00a96933          	or	s2,s2,a0
    443e:	06848493          	addi	s1,s1,104
    4442:	bfe9                	j	441c <_fwalk_reent+0x42>

00004444 <__swhatbuf_r>:
    4444:	7119                	addi	sp,sp,-128
    4446:	daa6                	sw	s1,116(sp)
    4448:	84ae                	mv	s1,a1
    444a:	00e59583          	lh	a1,14(a1)
    444e:	dca2                	sw	s0,120(sp)
    4450:	de86                	sw	ra,124(sp)
    4452:	8432                	mv	s0,a2
    4454:	0005db63          	bgez	a1,446a <__swhatbuf_r+0x26>
    4458:	24de                	lhu	a5,12(s1)
    445a:	0006a023          	sw	zero,0(a3)
    445e:	0807f793          	andi	a5,a5,128
    4462:	e785                	bnez	a5,448a <__swhatbuf_r+0x46>
    4464:	40000793          	li	a5,1024
    4468:	a01d                	j	448e <__swhatbuf_r+0x4a>
    446a:	0830                	addi	a2,sp,24
    446c:	c636                	sw	a3,12(sp)
    446e:	201000ef          	jal	ra,4e6e <_fstat_r>
    4472:	46b2                	lw	a3,12(sp)
    4474:	fe0542e3          	bltz	a0,4458 <__swhatbuf_r+0x14>
    4478:	4772                	lw	a4,28(sp)
    447a:	67bd                	lui	a5,0xf
    447c:	8ff9                	and	a5,a5,a4
    447e:	7779                	lui	a4,0xffffe
    4480:	97ba                	add	a5,a5,a4
    4482:	0017b793          	seqz	a5,a5
    4486:	c29c                	sw	a5,0(a3)
    4488:	bff1                	j	4464 <__swhatbuf_r+0x20>
    448a:	04000793          	li	a5,64
    448e:	c01c                	sw	a5,0(s0)
    4490:	50f6                	lw	ra,124(sp)
    4492:	5466                	lw	s0,120(sp)
    4494:	54d6                	lw	s1,116(sp)
    4496:	4501                	li	a0,0
    4498:	6109                	addi	sp,sp,128
    449a:	8082                	ret

0000449c <__smakebuf_r>:
    449c:	25de                	lhu	a5,12(a1)
    449e:	1101                	addi	sp,sp,-32
    44a0:	cc22                	sw	s0,24(sp)
    44a2:	ce06                	sw	ra,28(sp)
    44a4:	ca26                	sw	s1,20(sp)
    44a6:	c84a                	sw	s2,16(sp)
    44a8:	8b89                	andi	a5,a5,2
    44aa:	842e                	mv	s0,a1
    44ac:	cf89                	beqz	a5,44c6 <__smakebuf_r+0x2a>
    44ae:	04740793          	addi	a5,s0,71
    44b2:	c01c                	sw	a5,0(s0)
    44b4:	c81c                	sw	a5,16(s0)
    44b6:	4785                	li	a5,1
    44b8:	c85c                	sw	a5,20(s0)
    44ba:	40f2                	lw	ra,28(sp)
    44bc:	4462                	lw	s0,24(sp)
    44be:	44d2                	lw	s1,20(sp)
    44c0:	4942                	lw	s2,16(sp)
    44c2:	6105                	addi	sp,sp,32
    44c4:	8082                	ret
    44c6:	0074                	addi	a3,sp,12
    44c8:	0030                	addi	a2,sp,8
    44ca:	84aa                	mv	s1,a0
    44cc:	3fa5                	jal	4444 <__swhatbuf_r>
    44ce:	45a2                	lw	a1,8(sp)
    44d0:	892a                	mv	s2,a0
    44d2:	8526                	mv	a0,s1
    44d4:	2201                	jal	45d4 <_malloc_r>
    44d6:	e919                	bnez	a0,44ec <__smakebuf_r+0x50>
    44d8:	00c41783          	lh	a5,12(s0)
    44dc:	2007f713          	andi	a4,a5,512
    44e0:	ff69                	bnez	a4,44ba <__smakebuf_r+0x1e>
    44e2:	9bf1                	andi	a5,a5,-4
    44e4:	0027e793          	ori	a5,a5,2
    44e8:	a45e                	sh	a5,12(s0)
    44ea:	b7d1                	j	44ae <__smakebuf_r+0x12>
    44ec:	00000797          	auipc	a5,0x0
    44f0:	d9c78793          	addi	a5,a5,-612 # 4288 <_cleanup_r>
    44f4:	d49c                	sw	a5,40(s1)
    44f6:	245e                	lhu	a5,12(s0)
    44f8:	c008                	sw	a0,0(s0)
    44fa:	c808                	sw	a0,16(s0)
    44fc:	0807e793          	ori	a5,a5,128
    4500:	a45e                	sh	a5,12(s0)
    4502:	47a2                	lw	a5,8(sp)
    4504:	c85c                	sw	a5,20(s0)
    4506:	47b2                	lw	a5,12(sp)
    4508:	cf81                	beqz	a5,4520 <__smakebuf_r+0x84>
    450a:	00e41583          	lh	a1,14(s0)
    450e:	8526                	mv	a0,s1
    4510:	189000ef          	jal	ra,4e98 <_isatty_r>
    4514:	c511                	beqz	a0,4520 <__smakebuf_r+0x84>
    4516:	245e                	lhu	a5,12(s0)
    4518:	9bf1                	andi	a5,a5,-4
    451a:	0017e793          	ori	a5,a5,1
    451e:	a45e                	sh	a5,12(s0)
    4520:	245e                	lhu	a5,12(s0)
    4522:	00f96933          	or	s2,s2,a5
    4526:	01241623          	sh	s2,12(s0)
    452a:	bf41                	j	44ba <__smakebuf_r+0x1e>

0000452c <_free_r>:
    452c:	c1dd                	beqz	a1,45d2 <_free_r+0xa6>
    452e:	ffc5a783          	lw	a5,-4(a1)
    4532:	1141                	addi	sp,sp,-16
    4534:	c422                	sw	s0,8(sp)
    4536:	c606                	sw	ra,12(sp)
    4538:	c226                	sw	s1,4(sp)
    453a:	ffc58413          	addi	s0,a1,-4
    453e:	0007d363          	bgez	a5,4544 <_free_r+0x18>
    4542:	943e                	add	s0,s0,a5
    4544:	84aa                	mv	s1,a0
    4546:	1bf000ef          	jal	ra,4f04 <__malloc_lock>
    454a:	85418793          	addi	a5,gp,-1964 # 200000fc <__malloc_free_list>
    454e:	439c                	lw	a5,0(a5)
    4550:	ef81                	bnez	a5,4568 <_free_r+0x3c>
    4552:	00042223          	sw	zero,4(s0)
    4556:	8481aa23          	sw	s0,-1964(gp) # 200000fc <__malloc_free_list>
    455a:	4422                	lw	s0,8(sp)
    455c:	40b2                	lw	ra,12(sp)
    455e:	8526                	mv	a0,s1
    4560:	4492                	lw	s1,4(sp)
    4562:	0141                	addi	sp,sp,16
    4564:	1a30006f          	j	4f06 <__malloc_unlock>
    4568:	00f47e63          	bgeu	s0,a5,4584 <_free_r+0x58>
    456c:	4014                	lw	a3,0(s0)
    456e:	00d40733          	add	a4,s0,a3
    4572:	00e79663          	bne	a5,a4,457e <_free_r+0x52>
    4576:	4398                	lw	a4,0(a5)
    4578:	43dc                	lw	a5,4(a5)
    457a:	9736                	add	a4,a4,a3
    457c:	c018                	sw	a4,0(s0)
    457e:	c05c                	sw	a5,4(s0)
    4580:	bfd9                	j	4556 <_free_r+0x2a>
    4582:	87ba                	mv	a5,a4
    4584:	43d8                	lw	a4,4(a5)
    4586:	c319                	beqz	a4,458c <_free_r+0x60>
    4588:	fee47de3          	bgeu	s0,a4,4582 <_free_r+0x56>
    458c:	4394                	lw	a3,0(a5)
    458e:	00d78633          	add	a2,a5,a3
    4592:	00861f63          	bne	a2,s0,45b0 <_free_r+0x84>
    4596:	4010                	lw	a2,0(s0)
    4598:	96b2                	add	a3,a3,a2
    459a:	c394                	sw	a3,0(a5)
    459c:	00d78633          	add	a2,a5,a3
    45a0:	fac71de3          	bne	a4,a2,455a <_free_r+0x2e>
    45a4:	4310                	lw	a2,0(a4)
    45a6:	4358                	lw	a4,4(a4)
    45a8:	96b2                	add	a3,a3,a2
    45aa:	c394                	sw	a3,0(a5)
    45ac:	c3d8                	sw	a4,4(a5)
    45ae:	b775                	j	455a <_free_r+0x2e>
    45b0:	00c47563          	bgeu	s0,a2,45ba <_free_r+0x8e>
    45b4:	47b1                	li	a5,12
    45b6:	c09c                	sw	a5,0(s1)
    45b8:	b74d                	j	455a <_free_r+0x2e>
    45ba:	4010                	lw	a2,0(s0)
    45bc:	00c406b3          	add	a3,s0,a2
    45c0:	00d71663          	bne	a4,a3,45cc <_free_r+0xa0>
    45c4:	4314                	lw	a3,0(a4)
    45c6:	4358                	lw	a4,4(a4)
    45c8:	96b2                	add	a3,a3,a2
    45ca:	c014                	sw	a3,0(s0)
    45cc:	c058                	sw	a4,4(s0)
    45ce:	c3c0                	sw	s0,4(a5)
    45d0:	b769                	j	455a <_free_r+0x2e>
    45d2:	8082                	ret

000045d4 <_malloc_r>:
    45d4:	1101                	addi	sp,sp,-32
    45d6:	ca26                	sw	s1,20(sp)
    45d8:	00358493          	addi	s1,a1,3
    45dc:	98f1                	andi	s1,s1,-4
    45de:	ce06                	sw	ra,28(sp)
    45e0:	cc22                	sw	s0,24(sp)
    45e2:	c84a                	sw	s2,16(sp)
    45e4:	c64e                	sw	s3,12(sp)
    45e6:	04a1                	addi	s1,s1,8
    45e8:	47b1                	li	a5,12
    45ea:	04f4f363          	bgeu	s1,a5,4630 <_malloc_r+0x5c>
    45ee:	44b1                	li	s1,12
    45f0:	04b4e263          	bltu	s1,a1,4634 <_malloc_r+0x60>
    45f4:	892a                	mv	s2,a0
    45f6:	10f000ef          	jal	ra,4f04 <__malloc_lock>
    45fa:	85418793          	addi	a5,gp,-1964 # 200000fc <__malloc_free_list>
    45fe:	4398                	lw	a4,0(a5)
    4600:	843a                	mv	s0,a4
    4602:	e039                	bnez	s0,4648 <_malloc_r+0x74>
    4604:	85818793          	addi	a5,gp,-1960 # 20000100 <__malloc_sbrk_start>
    4608:	439c                	lw	a5,0(a5)
    460a:	e791                	bnez	a5,4616 <_malloc_r+0x42>
    460c:	4581                	li	a1,0
    460e:	854a                	mv	a0,s2
    4610:	2f15                	jal	4d44 <_sbrk_r>
    4612:	84a1ac23          	sw	a0,-1960(gp) # 20000100 <__malloc_sbrk_start>
    4616:	85a6                	mv	a1,s1
    4618:	854a                	mv	a0,s2
    461a:	272d                	jal	4d44 <_sbrk_r>
    461c:	59fd                	li	s3,-1
    461e:	07351963          	bne	a0,s3,4690 <_malloc_r+0xbc>
    4622:	47b1                	li	a5,12
    4624:	00f92023          	sw	a5,0(s2)
    4628:	854a                	mv	a0,s2
    462a:	0dd000ef          	jal	ra,4f06 <__malloc_unlock>
    462e:	a029                	j	4638 <_malloc_r+0x64>
    4630:	fc04d0e3          	bgez	s1,45f0 <_malloc_r+0x1c>
    4634:	47b1                	li	a5,12
    4636:	c11c                	sw	a5,0(a0)
    4638:	4501                	li	a0,0
    463a:	40f2                	lw	ra,28(sp)
    463c:	4462                	lw	s0,24(sp)
    463e:	44d2                	lw	s1,20(sp)
    4640:	4942                	lw	s2,16(sp)
    4642:	49b2                	lw	s3,12(sp)
    4644:	6105                	addi	sp,sp,32
    4646:	8082                	ret
    4648:	401c                	lw	a5,0(s0)
    464a:	8f85                	sub	a5,a5,s1
    464c:	0207cf63          	bltz	a5,468a <_malloc_r+0xb6>
    4650:	46ad                	li	a3,11
    4652:	00f6f663          	bgeu	a3,a5,465e <_malloc_r+0x8a>
    4656:	c01c                	sw	a5,0(s0)
    4658:	943e                	add	s0,s0,a5
    465a:	c004                	sw	s1,0(s0)
    465c:	a031                	j	4668 <_malloc_r+0x94>
    465e:	405c                	lw	a5,4(s0)
    4660:	02871363          	bne	a4,s0,4686 <_malloc_r+0xb2>
    4664:	84f1aa23          	sw	a5,-1964(gp) # 200000fc <__malloc_free_list>
    4668:	854a                	mv	a0,s2
    466a:	09d000ef          	jal	ra,4f06 <__malloc_unlock>
    466e:	00b40513          	addi	a0,s0,11
    4672:	00440793          	addi	a5,s0,4
    4676:	9961                	andi	a0,a0,-8
    4678:	40f50733          	sub	a4,a0,a5
    467c:	df5d                	beqz	a4,463a <_malloc_r+0x66>
    467e:	943a                	add	s0,s0,a4
    4680:	8f89                	sub	a5,a5,a0
    4682:	c01c                	sw	a5,0(s0)
    4684:	bf5d                	j	463a <_malloc_r+0x66>
    4686:	c35c                	sw	a5,4(a4)
    4688:	b7c5                	j	4668 <_malloc_r+0x94>
    468a:	8722                	mv	a4,s0
    468c:	4040                	lw	s0,4(s0)
    468e:	bf95                	j	4602 <_malloc_r+0x2e>
    4690:	00350413          	addi	s0,a0,3
    4694:	9871                	andi	s0,s0,-4
    4696:	fc8502e3          	beq	a0,s0,465a <_malloc_r+0x86>
    469a:	40a405b3          	sub	a1,s0,a0
    469e:	854a                	mv	a0,s2
    46a0:	2555                	jal	4d44 <_sbrk_r>
    46a2:	fb351ce3          	bne	a0,s3,465a <_malloc_r+0x86>
    46a6:	bfb5                	j	4622 <_malloc_r+0x4e>

000046a8 <__sfputc_r>:
    46a8:	461c                	lw	a5,8(a2)
    46aa:	17fd                	addi	a5,a5,-1
    46ac:	c61c                	sw	a5,8(a2)
    46ae:	0007da63          	bgez	a5,46c2 <__sfputc_r+0x1a>
    46b2:	4e18                	lw	a4,24(a2)
    46b4:	00e7c563          	blt	a5,a4,46be <__sfputc_r+0x16>
    46b8:	47a9                	li	a5,10
    46ba:	00f59463          	bne	a1,a5,46c2 <__sfputc_r+0x1a>
    46be:	819ff06f          	j	3ed6 <__swbuf_r>
    46c2:	421c                	lw	a5,0(a2)
    46c4:	852e                	mv	a0,a1
    46c6:	00178713          	addi	a4,a5,1
    46ca:	c218                	sw	a4,0(a2)
    46cc:	a38c                	sb	a1,0(a5)
    46ce:	8082                	ret

000046d0 <__sfputs_r>:
    46d0:	1101                	addi	sp,sp,-32
    46d2:	cc22                	sw	s0,24(sp)
    46d4:	ca26                	sw	s1,20(sp)
    46d6:	c84a                	sw	s2,16(sp)
    46d8:	c64e                	sw	s3,12(sp)
    46da:	c452                	sw	s4,8(sp)
    46dc:	ce06                	sw	ra,28(sp)
    46de:	892a                	mv	s2,a0
    46e0:	89ae                	mv	s3,a1
    46e2:	8432                	mv	s0,a2
    46e4:	00d604b3          	add	s1,a2,a3
    46e8:	5a7d                	li	s4,-1
    46ea:	00941463          	bne	s0,s1,46f2 <__sfputs_r+0x22>
    46ee:	4501                	li	a0,0
    46f0:	a801                	j	4700 <__sfputs_r+0x30>
    46f2:	200c                	lbu	a1,0(s0)
    46f4:	864e                	mv	a2,s3
    46f6:	854a                	mv	a0,s2
    46f8:	3f45                	jal	46a8 <__sfputc_r>
    46fa:	0405                	addi	s0,s0,1
    46fc:	ff4517e3          	bne	a0,s4,46ea <__sfputs_r+0x1a>
    4700:	40f2                	lw	ra,28(sp)
    4702:	4462                	lw	s0,24(sp)
    4704:	44d2                	lw	s1,20(sp)
    4706:	4942                	lw	s2,16(sp)
    4708:	49b2                	lw	s3,12(sp)
    470a:	4a22                	lw	s4,8(sp)
    470c:	6105                	addi	sp,sp,32
    470e:	8082                	ret

00004710 <_vfiprintf_r>:
    4710:	7135                	addi	sp,sp,-160
    4712:	cd22                	sw	s0,152(sp)
    4714:	cb26                	sw	s1,148(sp)
    4716:	c94a                	sw	s2,144(sp)
    4718:	c74e                	sw	s3,140(sp)
    471a:	cf06                	sw	ra,156(sp)
    471c:	c552                	sw	s4,136(sp)
    471e:	c356                	sw	s5,132(sp)
    4720:	c15a                	sw	s6,128(sp)
    4722:	dede                	sw	s7,124(sp)
    4724:	dce2                	sw	s8,120(sp)
    4726:	dae6                	sw	s9,116(sp)
    4728:	89aa                	mv	s3,a0
    472a:	84ae                	mv	s1,a1
    472c:	8932                	mv	s2,a2
    472e:	8436                	mv	s0,a3
    4730:	c509                	beqz	a0,473a <_vfiprintf_r+0x2a>
    4732:	4d1c                	lw	a5,24(a0)
    4734:	e399                	bnez	a5,473a <_vfiprintf_r+0x2a>
    4736:	ba3ff0ef          	jal	ra,42d8 <__sinit>
    473a:	00001797          	auipc	a5,0x1
    473e:	ac278793          	addi	a5,a5,-1342 # 51fc <__sf_fake_stdin>
    4742:	0cf49763          	bne	s1,a5,4810 <_vfiprintf_r+0x100>
    4746:	0049a483          	lw	s1,4(s3)
    474a:	24de                	lhu	a5,12(s1)
    474c:	8ba1                	andi	a5,a5,8
    474e:	c3fd                	beqz	a5,4834 <_vfiprintf_r+0x124>
    4750:	489c                	lw	a5,16(s1)
    4752:	c3ed                	beqz	a5,4834 <_vfiprintf_r+0x124>
    4754:	02000793          	li	a5,32
    4758:	02f104a3          	sb	a5,41(sp)
    475c:	03000793          	li	a5,48
    4760:	d202                	sw	zero,36(sp)
    4762:	02f10523          	sb	a5,42(sp)
    4766:	c622                	sw	s0,12(sp)
    4768:	02500b93          	li	s7,37
    476c:	00001a97          	auipc	s5,0x1
    4770:	ad0a8a93          	addi	s5,s5,-1328 # 523c <__sf_fake_stdout+0x20>
    4774:	4c05                	li	s8,1
    4776:	4b29                	li	s6,10
    4778:	844a                	mv	s0,s2
    477a:	201c                	lbu	a5,0(s0)
    477c:	c399                	beqz	a5,4782 <_vfiprintf_r+0x72>
    477e:	0d779e63          	bne	a5,s7,485a <_vfiprintf_r+0x14a>
    4782:	41240cb3          	sub	s9,s0,s2
    4786:	000c8d63          	beqz	s9,47a0 <_vfiprintf_r+0x90>
    478a:	86e6                	mv	a3,s9
    478c:	864a                	mv	a2,s2
    478e:	85a6                	mv	a1,s1
    4790:	854e                	mv	a0,s3
    4792:	3f3d                	jal	46d0 <__sfputs_r>
    4794:	57fd                	li	a5,-1
    4796:	1cf50f63          	beq	a0,a5,4974 <_vfiprintf_r+0x264>
    479a:	5692                	lw	a3,36(sp)
    479c:	96e6                	add	a3,a3,s9
    479e:	d236                	sw	a3,36(sp)
    47a0:	201c                	lbu	a5,0(s0)
    47a2:	1c078963          	beqz	a5,4974 <_vfiprintf_r+0x264>
    47a6:	57fd                	li	a5,-1
    47a8:	00140913          	addi	s2,s0,1
    47ac:	c802                	sw	zero,16(sp)
    47ae:	ce02                	sw	zero,28(sp)
    47b0:	ca3e                	sw	a5,20(sp)
    47b2:	cc02                	sw	zero,24(sp)
    47b4:	040109a3          	sb	zero,83(sp)
    47b8:	d482                	sw	zero,104(sp)
    47ba:	00094583          	lbu	a1,0(s2)
    47be:	4615                	li	a2,5
    47c0:	8556                	mv	a0,s5
    47c2:	272d                	jal	4eec <memchr>
    47c4:	00190413          	addi	s0,s2,1
    47c8:	47c2                	lw	a5,16(sp)
    47ca:	e951                	bnez	a0,485e <_vfiprintf_r+0x14e>
    47cc:	0107f713          	andi	a4,a5,16
    47d0:	c709                	beqz	a4,47da <_vfiprintf_r+0xca>
    47d2:	02000713          	li	a4,32
    47d6:	04e109a3          	sb	a4,83(sp)
    47da:	0087f713          	andi	a4,a5,8
    47de:	c709                	beqz	a4,47e8 <_vfiprintf_r+0xd8>
    47e0:	02b00713          	li	a4,43
    47e4:	04e109a3          	sb	a4,83(sp)
    47e8:	00094683          	lbu	a3,0(s2)
    47ec:	02a00713          	li	a4,42
    47f0:	06e68f63          	beq	a3,a4,486e <_vfiprintf_r+0x15e>
    47f4:	47f2                	lw	a5,28(sp)
    47f6:	844a                	mv	s0,s2
    47f8:	4681                	li	a3,0
    47fa:	4625                	li	a2,9
    47fc:	2018                	lbu	a4,0(s0)
    47fe:	00140593          	addi	a1,s0,1
    4802:	fd070713          	addi	a4,a4,-48 # ffffdfd0 <_eusrstack+0xdfff5fd0>
    4806:	0ae67763          	bgeu	a2,a4,48b4 <_vfiprintf_r+0x1a4>
    480a:	cab5                	beqz	a3,487e <_vfiprintf_r+0x16e>
    480c:	ce3e                	sw	a5,28(sp)
    480e:	a885                	j	487e <_vfiprintf_r+0x16e>
    4810:	00001797          	auipc	a5,0x1
    4814:	a0c78793          	addi	a5,a5,-1524 # 521c <__sf_fake_stdout>
    4818:	00f49563          	bne	s1,a5,4822 <_vfiprintf_r+0x112>
    481c:	0089a483          	lw	s1,8(s3)
    4820:	b72d                	j	474a <_vfiprintf_r+0x3a>
    4822:	00001797          	auipc	a5,0x1
    4826:	9ba78793          	addi	a5,a5,-1606 # 51dc <__sf_fake_stderr>
    482a:	f2f490e3          	bne	s1,a5,474a <_vfiprintf_r+0x3a>
    482e:	00c9a483          	lw	s1,12(s3)
    4832:	bf21                	j	474a <_vfiprintf_r+0x3a>
    4834:	85a6                	mv	a1,s1
    4836:	854e                	mv	a0,s3
    4838:	f5aff0ef          	jal	ra,3f92 <__swsetup_r>
    483c:	dd01                	beqz	a0,4754 <_vfiprintf_r+0x44>
    483e:	557d                	li	a0,-1
    4840:	40fa                	lw	ra,156(sp)
    4842:	446a                	lw	s0,152(sp)
    4844:	44da                	lw	s1,148(sp)
    4846:	494a                	lw	s2,144(sp)
    4848:	49ba                	lw	s3,140(sp)
    484a:	4a2a                	lw	s4,136(sp)
    484c:	4a9a                	lw	s5,132(sp)
    484e:	4b0a                	lw	s6,128(sp)
    4850:	5bf6                	lw	s7,124(sp)
    4852:	5c66                	lw	s8,120(sp)
    4854:	5cd6                	lw	s9,116(sp)
    4856:	610d                	addi	sp,sp,160
    4858:	8082                	ret
    485a:	0405                	addi	s0,s0,1
    485c:	bf39                	j	477a <_vfiprintf_r+0x6a>
    485e:	41550533          	sub	a0,a0,s5
    4862:	00ac1533          	sll	a0,s8,a0
    4866:	8fc9                	or	a5,a5,a0
    4868:	c83e                	sw	a5,16(sp)
    486a:	8922                	mv	s2,s0
    486c:	b7b9                	j	47ba <_vfiprintf_r+0xaa>
    486e:	4732                	lw	a4,12(sp)
    4870:	00470693          	addi	a3,a4,4
    4874:	4318                	lw	a4,0(a4)
    4876:	c636                	sw	a3,12(sp)
    4878:	02074763          	bltz	a4,48a6 <_vfiprintf_r+0x196>
    487c:	ce3a                	sw	a4,28(sp)
    487e:	2018                	lbu	a4,0(s0)
    4880:	02e00793          	li	a5,46
    4884:	04f71d63          	bne	a4,a5,48de <_vfiprintf_r+0x1ce>
    4888:	3018                	lbu	a4,1(s0)
    488a:	02a00793          	li	a5,42
    488e:	02f71b63          	bne	a4,a5,48c4 <_vfiprintf_r+0x1b4>
    4892:	47b2                	lw	a5,12(sp)
    4894:	0409                	addi	s0,s0,2
    4896:	00478713          	addi	a4,a5,4
    489a:	439c                	lw	a5,0(a5)
    489c:	c63a                	sw	a4,12(sp)
    489e:	0207c163          	bltz	a5,48c0 <_vfiprintf_r+0x1b0>
    48a2:	ca3e                	sw	a5,20(sp)
    48a4:	a82d                	j	48de <_vfiprintf_r+0x1ce>
    48a6:	40e00733          	neg	a4,a4
    48aa:	0027e793          	ori	a5,a5,2
    48ae:	ce3a                	sw	a4,28(sp)
    48b0:	c83e                	sw	a5,16(sp)
    48b2:	b7f1                	j	487e <_vfiprintf_r+0x16e>
    48b4:	036787b3          	mul	a5,a5,s6
    48b8:	4685                	li	a3,1
    48ba:	842e                	mv	s0,a1
    48bc:	97ba                	add	a5,a5,a4
    48be:	bf3d                	j	47fc <_vfiprintf_r+0xec>
    48c0:	57fd                	li	a5,-1
    48c2:	b7c5                	j	48a2 <_vfiprintf_r+0x192>
    48c4:	0405                	addi	s0,s0,1
    48c6:	ca02                	sw	zero,20(sp)
    48c8:	4681                	li	a3,0
    48ca:	4781                	li	a5,0
    48cc:	4625                	li	a2,9
    48ce:	2018                	lbu	a4,0(s0)
    48d0:	00140593          	addi	a1,s0,1
    48d4:	fd070713          	addi	a4,a4,-48
    48d8:	06e67463          	bgeu	a2,a4,4940 <_vfiprintf_r+0x230>
    48dc:	f2f9                	bnez	a3,48a2 <_vfiprintf_r+0x192>
    48de:	200c                	lbu	a1,0(s0)
    48e0:	460d                	li	a2,3
    48e2:	00001517          	auipc	a0,0x1
    48e6:	96250513          	addi	a0,a0,-1694 # 5244 <__sf_fake_stdout+0x28>
    48ea:	2509                	jal	4eec <memchr>
    48ec:	cd11                	beqz	a0,4908 <_vfiprintf_r+0x1f8>
    48ee:	00001797          	auipc	a5,0x1
    48f2:	95678793          	addi	a5,a5,-1706 # 5244 <__sf_fake_stdout+0x28>
    48f6:	8d1d                	sub	a0,a0,a5
    48f8:	04000793          	li	a5,64
    48fc:	00a797b3          	sll	a5,a5,a0
    4900:	4542                	lw	a0,16(sp)
    4902:	0405                	addi	s0,s0,1
    4904:	8d5d                	or	a0,a0,a5
    4906:	c82a                	sw	a0,16(sp)
    4908:	200c                	lbu	a1,0(s0)
    490a:	4619                	li	a2,6
    490c:	00001517          	auipc	a0,0x1
    4910:	93c50513          	addi	a0,a0,-1732 # 5248 <__sf_fake_stdout+0x2c>
    4914:	00140913          	addi	s2,s0,1
    4918:	02b10423          	sb	a1,40(sp)
    491c:	2bc1                	jal	4eec <memchr>
    491e:	c135                	beqz	a0,4982 <_vfiprintf_r+0x272>
    4920:	ffffb797          	auipc	a5,0xffffb
    4924:	6e078793          	addi	a5,a5,1760 # 0 <_sinit>
    4928:	e795                	bnez	a5,4954 <_vfiprintf_r+0x244>
    492a:	4742                	lw	a4,16(sp)
    492c:	47b2                	lw	a5,12(sp)
    492e:	10077713          	andi	a4,a4,256
    4932:	cf09                	beqz	a4,494c <_vfiprintf_r+0x23c>
    4934:	0791                	addi	a5,a5,4
    4936:	c63e                	sw	a5,12(sp)
    4938:	5792                	lw	a5,36(sp)
    493a:	97d2                	add	a5,a5,s4
    493c:	d23e                	sw	a5,36(sp)
    493e:	bd2d                	j	4778 <_vfiprintf_r+0x68>
    4940:	036787b3          	mul	a5,a5,s6
    4944:	4685                	li	a3,1
    4946:	842e                	mv	s0,a1
    4948:	97ba                	add	a5,a5,a4
    494a:	b751                	j	48ce <_vfiprintf_r+0x1be>
    494c:	079d                	addi	a5,a5,7
    494e:	9be1                	andi	a5,a5,-8
    4950:	07a1                	addi	a5,a5,8
    4952:	b7d5                	j	4936 <_vfiprintf_r+0x226>
    4954:	0078                	addi	a4,sp,12
    4956:	00000697          	auipc	a3,0x0
    495a:	d7a68693          	addi	a3,a3,-646 # 46d0 <__sfputs_r>
    495e:	8626                	mv	a2,s1
    4960:	080c                	addi	a1,sp,16
    4962:	854e                	mv	a0,s3
    4964:	00000097          	auipc	ra,0x0
    4968:	000000e7          	jalr	zero # 0 <_sinit>
    496c:	57fd                	li	a5,-1
    496e:	8a2a                	mv	s4,a0
    4970:	fcf514e3          	bne	a0,a5,4938 <_vfiprintf_r+0x228>
    4974:	24de                	lhu	a5,12(s1)
    4976:	0407f793          	andi	a5,a5,64
    497a:	ec0792e3          	bnez	a5,483e <_vfiprintf_r+0x12e>
    497e:	5512                	lw	a0,36(sp)
    4980:	b5c1                	j	4840 <_vfiprintf_r+0x130>
    4982:	0078                	addi	a4,sp,12
    4984:	00000697          	auipc	a3,0x0
    4988:	d4c68693          	addi	a3,a3,-692 # 46d0 <__sfputs_r>
    498c:	8626                	mv	a2,s1
    498e:	080c                	addi	a1,sp,16
    4990:	854e                	mv	a0,s3
    4992:	2a01                	jal	4aa2 <_printf_i>
    4994:	bfe1                	j	496c <_vfiprintf_r+0x25c>

00004996 <_printf_common>:
    4996:	7179                	addi	sp,sp,-48
    4998:	ca56                	sw	s5,20(sp)
    499a:	499c                	lw	a5,16(a1)
    499c:	8aba                	mv	s5,a4
    499e:	4598                	lw	a4,8(a1)
    49a0:	d422                	sw	s0,40(sp)
    49a2:	d226                	sw	s1,36(sp)
    49a4:	ce4e                	sw	s3,28(sp)
    49a6:	cc52                	sw	s4,24(sp)
    49a8:	d606                	sw	ra,44(sp)
    49aa:	d04a                	sw	s2,32(sp)
    49ac:	c85a                	sw	s6,16(sp)
    49ae:	c65e                	sw	s7,12(sp)
    49b0:	89aa                	mv	s3,a0
    49b2:	842e                	mv	s0,a1
    49b4:	84b2                	mv	s1,a2
    49b6:	8a36                	mv	s4,a3
    49b8:	00e7d363          	bge	a5,a4,49be <_printf_common+0x28>
    49bc:	87ba                	mv	a5,a4
    49be:	c09c                	sw	a5,0(s1)
    49c0:	04344703          	lbu	a4,67(s0)
    49c4:	c319                	beqz	a4,49ca <_printf_common+0x34>
    49c6:	0785                	addi	a5,a5,1
    49c8:	c09c                	sw	a5,0(s1)
    49ca:	401c                	lw	a5,0(s0)
    49cc:	0207f793          	andi	a5,a5,32
    49d0:	c781                	beqz	a5,49d8 <_printf_common+0x42>
    49d2:	409c                	lw	a5,0(s1)
    49d4:	0789                	addi	a5,a5,2
    49d6:	c09c                	sw	a5,0(s1)
    49d8:	00042903          	lw	s2,0(s0)
    49dc:	00697913          	andi	s2,s2,6
    49e0:	00091a63          	bnez	s2,49f4 <_printf_common+0x5e>
    49e4:	01940b13          	addi	s6,s0,25
    49e8:	5bfd                	li	s7,-1
    49ea:	445c                	lw	a5,12(s0)
    49ec:	4098                	lw	a4,0(s1)
    49ee:	8f99                	sub	a5,a5,a4
    49f0:	04f94c63          	blt	s2,a5,4a48 <_printf_common+0xb2>
    49f4:	401c                	lw	a5,0(s0)
    49f6:	04344683          	lbu	a3,67(s0)
    49fa:	0207f793          	andi	a5,a5,32
    49fe:	00d036b3          	snez	a3,a3
    4a02:	eba5                	bnez	a5,4a72 <_printf_common+0xdc>
    4a04:	04340613          	addi	a2,s0,67
    4a08:	85d2                	mv	a1,s4
    4a0a:	854e                	mv	a0,s3
    4a0c:	9a82                	jalr	s5
    4a0e:	57fd                	li	a5,-1
    4a10:	04f50363          	beq	a0,a5,4a56 <_printf_common+0xc0>
    4a14:	401c                	lw	a5,0(s0)
    4a16:	4611                	li	a2,4
    4a18:	4098                	lw	a4,0(s1)
    4a1a:	8b99                	andi	a5,a5,6
    4a1c:	4454                	lw	a3,12(s0)
    4a1e:	4481                	li	s1,0
    4a20:	00c79763          	bne	a5,a2,4a2e <_printf_common+0x98>
    4a24:	40e684b3          	sub	s1,a3,a4
    4a28:	0004d363          	bgez	s1,4a2e <_printf_common+0x98>
    4a2c:	4481                	li	s1,0
    4a2e:	441c                	lw	a5,8(s0)
    4a30:	4818                	lw	a4,16(s0)
    4a32:	00f75463          	bge	a4,a5,4a3a <_printf_common+0xa4>
    4a36:	8f99                	sub	a5,a5,a4
    4a38:	94be                	add	s1,s1,a5
    4a3a:	4901                	li	s2,0
    4a3c:	0469                	addi	s0,s0,26
    4a3e:	5b7d                	li	s6,-1
    4a40:	05249863          	bne	s1,s2,4a90 <_printf_common+0xfa>
    4a44:	4501                	li	a0,0
    4a46:	a809                	j	4a58 <_printf_common+0xc2>
    4a48:	4685                	li	a3,1
    4a4a:	865a                	mv	a2,s6
    4a4c:	85d2                	mv	a1,s4
    4a4e:	854e                	mv	a0,s3
    4a50:	9a82                	jalr	s5
    4a52:	01751e63          	bne	a0,s7,4a6e <_printf_common+0xd8>
    4a56:	557d                	li	a0,-1
    4a58:	50b2                	lw	ra,44(sp)
    4a5a:	5422                	lw	s0,40(sp)
    4a5c:	5492                	lw	s1,36(sp)
    4a5e:	5902                	lw	s2,32(sp)
    4a60:	49f2                	lw	s3,28(sp)
    4a62:	4a62                	lw	s4,24(sp)
    4a64:	4ad2                	lw	s5,20(sp)
    4a66:	4b42                	lw	s6,16(sp)
    4a68:	4bb2                	lw	s7,12(sp)
    4a6a:	6145                	addi	sp,sp,48
    4a6c:	8082                	ret
    4a6e:	0905                	addi	s2,s2,1
    4a70:	bfad                	j	49ea <_printf_common+0x54>
    4a72:	00d40733          	add	a4,s0,a3
    4a76:	03000613          	li	a2,48
    4a7a:	04c701a3          	sb	a2,67(a4)
    4a7e:	04544703          	lbu	a4,69(s0)
    4a82:	00168793          	addi	a5,a3,1
    4a86:	97a2                	add	a5,a5,s0
    4a88:	0689                	addi	a3,a3,2
    4a8a:	04e781a3          	sb	a4,67(a5)
    4a8e:	bf9d                	j	4a04 <_printf_common+0x6e>
    4a90:	4685                	li	a3,1
    4a92:	8622                	mv	a2,s0
    4a94:	85d2                	mv	a1,s4
    4a96:	854e                	mv	a0,s3
    4a98:	9a82                	jalr	s5
    4a9a:	fb650ee3          	beq	a0,s6,4a56 <_printf_common+0xc0>
    4a9e:	0905                	addi	s2,s2,1
    4aa0:	b745                	j	4a40 <_printf_common+0xaa>

00004aa2 <_printf_i>:
    4aa2:	7179                	addi	sp,sp,-48
    4aa4:	d422                	sw	s0,40(sp)
    4aa6:	d226                	sw	s1,36(sp)
    4aa8:	d04a                	sw	s2,32(sp)
    4aaa:	ce4e                	sw	s3,28(sp)
    4aac:	d606                	sw	ra,44(sp)
    4aae:	cc52                	sw	s4,24(sp)
    4ab0:	ca56                	sw	s5,20(sp)
    4ab2:	c85a                	sw	s6,16(sp)
    4ab4:	89b6                	mv	s3,a3
    4ab6:	2d94                	lbu	a3,24(a1)
    4ab8:	06900793          	li	a5,105
    4abc:	8932                	mv	s2,a2
    4abe:	84aa                	mv	s1,a0
    4ac0:	842e                	mv	s0,a1
    4ac2:	04358613          	addi	a2,a1,67
    4ac6:	02f68d63          	beq	a3,a5,4b00 <_printf_i+0x5e>
    4aca:	06d7e263          	bltu	a5,a3,4b2e <_printf_i+0x8c>
    4ace:	05800793          	li	a5,88
    4ad2:	18f68663          	beq	a3,a5,4c5e <_printf_i+0x1bc>
    4ad6:	00d7ed63          	bltu	a5,a3,4af0 <_printf_i+0x4e>
    4ada:	20068e63          	beqz	a3,4cf6 <_printf_i+0x254>
    4ade:	04300793          	li	a5,67
    4ae2:	0af68e63          	beq	a3,a5,4b9e <_printf_i+0xfc>
    4ae6:	04240a93          	addi	s5,s0,66
    4aea:	04d40123          	sb	a3,66(s0)
    4aee:	a0c9                	j	4bb0 <_printf_i+0x10e>
    4af0:	06300793          	li	a5,99
    4af4:	0af68563          	beq	a3,a5,4b9e <_printf_i+0xfc>
    4af8:	06400793          	li	a5,100
    4afc:	fef695e3          	bne	a3,a5,4ae6 <_printf_i+0x44>
    4b00:	401c                	lw	a5,0(s0)
    4b02:	4308                	lw	a0,0(a4)
    4b04:	0807f693          	andi	a3,a5,128
    4b08:	00450593          	addi	a1,a0,4
    4b0c:	c6c5                	beqz	a3,4bb4 <_printf_i+0x112>
    4b0e:	411c                	lw	a5,0(a0)
    4b10:	c30c                	sw	a1,0(a4)
    4b12:	0007d863          	bgez	a5,4b22 <_printf_i+0x80>
    4b16:	02d00713          	li	a4,45
    4b1a:	40f007b3          	neg	a5,a5
    4b1e:	04e401a3          	sb	a4,67(s0)
    4b22:	00000697          	auipc	a3,0x0
    4b26:	72e68693          	addi	a3,a3,1838 # 5250 <__sf_fake_stdout+0x34>
    4b2a:	4729                	li	a4,10
    4b2c:	a865                	j	4be4 <_printf_i+0x142>
    4b2e:	07000793          	li	a5,112
    4b32:	16f68263          	beq	a3,a5,4c96 <_printf_i+0x1f4>
    4b36:	02d7e563          	bltu	a5,a3,4b60 <_printf_i+0xbe>
    4b3a:	06e00793          	li	a5,110
    4b3e:	18f68963          	beq	a3,a5,4cd0 <_printf_i+0x22e>
    4b42:	06f00793          	li	a5,111
    4b46:	faf690e3          	bne	a3,a5,4ae6 <_printf_i+0x44>
    4b4a:	400c                	lw	a1,0(s0)
    4b4c:	431c                	lw	a5,0(a4)
    4b4e:	0805f813          	andi	a6,a1,128
    4b52:	00478513          	addi	a0,a5,4
    4b56:	06080763          	beqz	a6,4bc4 <_printf_i+0x122>
    4b5a:	c308                	sw	a0,0(a4)
    4b5c:	439c                	lw	a5,0(a5)
    4b5e:	a885                	j	4bce <_printf_i+0x12c>
    4b60:	07500793          	li	a5,117
    4b64:	fef683e3          	beq	a3,a5,4b4a <_printf_i+0xa8>
    4b68:	07800793          	li	a5,120
    4b6c:	12f68963          	beq	a3,a5,4c9e <_printf_i+0x1fc>
    4b70:	07300793          	li	a5,115
    4b74:	f6f699e3          	bne	a3,a5,4ae6 <_printf_i+0x44>
    4b78:	431c                	lw	a5,0(a4)
    4b7a:	41d0                	lw	a2,4(a1)
    4b7c:	4581                	li	a1,0
    4b7e:	00478693          	addi	a3,a5,4
    4b82:	c314                	sw	a3,0(a4)
    4b84:	0007aa83          	lw	s5,0(a5)
    4b88:	8556                	mv	a0,s5
    4b8a:	268d                	jal	4eec <memchr>
    4b8c:	c501                	beqz	a0,4b94 <_printf_i+0xf2>
    4b8e:	41550533          	sub	a0,a0,s5
    4b92:	c048                	sw	a0,4(s0)
    4b94:	405c                	lw	a5,4(s0)
    4b96:	c81c                	sw	a5,16(s0)
    4b98:	040401a3          	sb	zero,67(s0)
    4b9c:	a861                	j	4c34 <_printf_i+0x192>
    4b9e:	431c                	lw	a5,0(a4)
    4ba0:	04240a93          	addi	s5,s0,66
    4ba4:	00478693          	addi	a3,a5,4
    4ba8:	439c                	lw	a5,0(a5)
    4baa:	c314                	sw	a3,0(a4)
    4bac:	04f40123          	sb	a5,66(s0)
    4bb0:	4785                	li	a5,1
    4bb2:	b7d5                	j	4b96 <_printf_i+0xf4>
    4bb4:	0407f693          	andi	a3,a5,64
    4bb8:	411c                	lw	a5,0(a0)
    4bba:	c30c                	sw	a1,0(a4)
    4bbc:	dab9                	beqz	a3,4b12 <_printf_i+0x70>
    4bbe:	07c2                	slli	a5,a5,0x10
    4bc0:	87c1                	srai	a5,a5,0x10
    4bc2:	bf81                	j	4b12 <_printf_i+0x70>
    4bc4:	0405f593          	andi	a1,a1,64
    4bc8:	c308                	sw	a0,0(a4)
    4bca:	d9c9                	beqz	a1,4b5c <_printf_i+0xba>
    4bcc:	239e                	lhu	a5,0(a5)
    4bce:	06f00713          	li	a4,111
    4bd2:	0ee68763          	beq	a3,a4,4cc0 <_printf_i+0x21e>
    4bd6:	00000697          	auipc	a3,0x0
    4bda:	67a68693          	addi	a3,a3,1658 # 5250 <__sf_fake_stdout+0x34>
    4bde:	4729                	li	a4,10
    4be0:	040401a3          	sb	zero,67(s0)
    4be4:	404c                	lw	a1,4(s0)
    4be6:	c40c                	sw	a1,8(s0)
    4be8:	0005c563          	bltz	a1,4bf2 <_printf_i+0x150>
    4bec:	4008                	lw	a0,0(s0)
    4bee:	996d                	andi	a0,a0,-5
    4bf0:	c008                	sw	a0,0(s0)
    4bf2:	e399                	bnez	a5,4bf8 <_printf_i+0x156>
    4bf4:	8ab2                	mv	s5,a2
    4bf6:	cd89                	beqz	a1,4c10 <_printf_i+0x16e>
    4bf8:	8ab2                	mv	s5,a2
    4bfa:	02e7f5b3          	remu	a1,a5,a4
    4bfe:	1afd                	addi	s5,s5,-1
    4c00:	95b6                	add	a1,a1,a3
    4c02:	218c                	lbu	a1,0(a1)
    4c04:	00ba8023          	sb	a1,0(s5)
    4c08:	02e7d5b3          	divu	a1,a5,a4
    4c0c:	0ce7f063          	bgeu	a5,a4,4ccc <_printf_i+0x22a>
    4c10:	47a1                	li	a5,8
    4c12:	00f71e63          	bne	a4,a5,4c2e <_printf_i+0x18c>
    4c16:	401c                	lw	a5,0(s0)
    4c18:	8b85                	andi	a5,a5,1
    4c1a:	cb91                	beqz	a5,4c2e <_printf_i+0x18c>
    4c1c:	4058                	lw	a4,4(s0)
    4c1e:	481c                	lw	a5,16(s0)
    4c20:	00e7c763          	blt	a5,a4,4c2e <_printf_i+0x18c>
    4c24:	03000793          	li	a5,48
    4c28:	fefa8fa3          	sb	a5,-1(s5)
    4c2c:	1afd                	addi	s5,s5,-1
    4c2e:	41560633          	sub	a2,a2,s5
    4c32:	c810                	sw	a2,16(s0)
    4c34:	874e                	mv	a4,s3
    4c36:	86ca                	mv	a3,s2
    4c38:	0070                	addi	a2,sp,12
    4c3a:	85a2                	mv	a1,s0
    4c3c:	8526                	mv	a0,s1
    4c3e:	d59ff0ef          	jal	ra,4996 <_printf_common>
    4c42:	5a7d                	li	s4,-1
    4c44:	0b451d63          	bne	a0,s4,4cfe <_printf_i+0x25c>
    4c48:	557d                	li	a0,-1
    4c4a:	50b2                	lw	ra,44(sp)
    4c4c:	5422                	lw	s0,40(sp)
    4c4e:	5492                	lw	s1,36(sp)
    4c50:	5902                	lw	s2,32(sp)
    4c52:	49f2                	lw	s3,28(sp)
    4c54:	4a62                	lw	s4,24(sp)
    4c56:	4ad2                	lw	s5,20(sp)
    4c58:	4b42                	lw	s6,16(sp)
    4c5a:	6145                	addi	sp,sp,48
    4c5c:	8082                	ret
    4c5e:	04d582a3          	sb	a3,69(a1)
    4c62:	00000697          	auipc	a3,0x0
    4c66:	5ee68693          	addi	a3,a3,1518 # 5250 <__sf_fake_stdout+0x34>
    4c6a:	400c                	lw	a1,0(s0)
    4c6c:	4308                	lw	a0,0(a4)
    4c6e:	0805f813          	andi	a6,a1,128
    4c72:	411c                	lw	a5,0(a0)
    4c74:	0511                	addi	a0,a0,4
    4c76:	02080d63          	beqz	a6,4cb0 <_printf_i+0x20e>
    4c7a:	c308                	sw	a0,0(a4)
    4c7c:	0015f713          	andi	a4,a1,1
    4c80:	c701                	beqz	a4,4c88 <_printf_i+0x1e6>
    4c82:	0205e593          	ori	a1,a1,32
    4c86:	c00c                	sw	a1,0(s0)
    4c88:	4741                	li	a4,16
    4c8a:	fbb9                	bnez	a5,4be0 <_printf_i+0x13e>
    4c8c:	400c                	lw	a1,0(s0)
    4c8e:	fdf5f593          	andi	a1,a1,-33
    4c92:	c00c                	sw	a1,0(s0)
    4c94:	b7b1                	j	4be0 <_printf_i+0x13e>
    4c96:	419c                	lw	a5,0(a1)
    4c98:	0207e793          	ori	a5,a5,32
    4c9c:	c19c                	sw	a5,0(a1)
    4c9e:	07800793          	li	a5,120
    4ca2:	04f402a3          	sb	a5,69(s0)
    4ca6:	00000697          	auipc	a3,0x0
    4caa:	5be68693          	addi	a3,a3,1470 # 5264 <__sf_fake_stdout+0x48>
    4cae:	bf75                	j	4c6a <_printf_i+0x1c8>
    4cb0:	0405f813          	andi	a6,a1,64
    4cb4:	c308                	sw	a0,0(a4)
    4cb6:	fc0803e3          	beqz	a6,4c7c <_printf_i+0x1da>
    4cba:	07c2                	slli	a5,a5,0x10
    4cbc:	83c1                	srli	a5,a5,0x10
    4cbe:	bf7d                	j	4c7c <_printf_i+0x1da>
    4cc0:	00000697          	auipc	a3,0x0
    4cc4:	59068693          	addi	a3,a3,1424 # 5250 <__sf_fake_stdout+0x34>
    4cc8:	4721                	li	a4,8
    4cca:	bf19                	j	4be0 <_printf_i+0x13e>
    4ccc:	87ae                	mv	a5,a1
    4cce:	b735                	j	4bfa <_printf_i+0x158>
    4cd0:	4194                	lw	a3,0(a1)
    4cd2:	431c                	lw	a5,0(a4)
    4cd4:	49cc                	lw	a1,20(a1)
    4cd6:	0806f813          	andi	a6,a3,128
    4cda:	00478513          	addi	a0,a5,4
    4cde:	00080663          	beqz	a6,4cea <_printf_i+0x248>
    4ce2:	c308                	sw	a0,0(a4)
    4ce4:	439c                	lw	a5,0(a5)
    4ce6:	c38c                	sw	a1,0(a5)
    4ce8:	a039                	j	4cf6 <_printf_i+0x254>
    4cea:	c308                	sw	a0,0(a4)
    4cec:	0406f693          	andi	a3,a3,64
    4cf0:	439c                	lw	a5,0(a5)
    4cf2:	daf5                	beqz	a3,4ce6 <_printf_i+0x244>
    4cf4:	a38e                	sh	a1,0(a5)
    4cf6:	00042823          	sw	zero,16(s0)
    4cfa:	8ab2                	mv	s5,a2
    4cfc:	bf25                	j	4c34 <_printf_i+0x192>
    4cfe:	4814                	lw	a3,16(s0)
    4d00:	8656                	mv	a2,s5
    4d02:	85ca                	mv	a1,s2
    4d04:	8526                	mv	a0,s1
    4d06:	9982                	jalr	s3
    4d08:	f54500e3          	beq	a0,s4,4c48 <_printf_i+0x1a6>
    4d0c:	401c                	lw	a5,0(s0)
    4d0e:	8b89                	andi	a5,a5,2
    4d10:	e78d                	bnez	a5,4d3a <_printf_i+0x298>
    4d12:	47b2                	lw	a5,12(sp)
    4d14:	4448                	lw	a0,12(s0)
    4d16:	f2f55ae3          	bge	a0,a5,4c4a <_printf_i+0x1a8>
    4d1a:	853e                	mv	a0,a5
    4d1c:	b73d                	j	4c4a <_printf_i+0x1a8>
    4d1e:	4685                	li	a3,1
    4d20:	8656                	mv	a2,s5
    4d22:	85ca                	mv	a1,s2
    4d24:	8526                	mv	a0,s1
    4d26:	9982                	jalr	s3
    4d28:	f36500e3          	beq	a0,s6,4c48 <_printf_i+0x1a6>
    4d2c:	0a05                	addi	s4,s4,1
    4d2e:	445c                	lw	a5,12(s0)
    4d30:	4732                	lw	a4,12(sp)
    4d32:	8f99                	sub	a5,a5,a4
    4d34:	fefa45e3          	blt	s4,a5,4d1e <_printf_i+0x27c>
    4d38:	bfe9                	j	4d12 <_printf_i+0x270>
    4d3a:	4a01                	li	s4,0
    4d3c:	01940a93          	addi	s5,s0,25
    4d40:	5b7d                	li	s6,-1
    4d42:	b7f5                	j	4d2e <_printf_i+0x28c>

00004d44 <_sbrk_r>:
    4d44:	1141                	addi	sp,sp,-16
    4d46:	c422                	sw	s0,8(sp)
    4d48:	842a                	mv	s0,a0
    4d4a:	852e                	mv	a0,a1
    4d4c:	ca01ae23          	sw	zero,-836(gp) # 20000564 <errno>
    4d50:	c606                	sw	ra,12(sp)
    4d52:	f5bfe0ef          	jal	ra,3cac <_sbrk>
    4d56:	57fd                	li	a5,-1
    4d58:	00f51763          	bne	a0,a5,4d66 <_sbrk_r+0x22>
    4d5c:	cbc18793          	addi	a5,gp,-836 # 20000564 <errno>
    4d60:	439c                	lw	a5,0(a5)
    4d62:	c391                	beqz	a5,4d66 <_sbrk_r+0x22>
    4d64:	c01c                	sw	a5,0(s0)
    4d66:	40b2                	lw	ra,12(sp)
    4d68:	4422                	lw	s0,8(sp)
    4d6a:	0141                	addi	sp,sp,16
    4d6c:	8082                	ret

00004d6e <__sread>:
    4d6e:	1141                	addi	sp,sp,-16
    4d70:	c422                	sw	s0,8(sp)
    4d72:	842e                	mv	s0,a1
    4d74:	00e59583          	lh	a1,14(a1)
    4d78:	c606                	sw	ra,12(sp)
    4d7a:	2279                	jal	4f08 <_read_r>
    4d7c:	00054963          	bltz	a0,4d8e <__sread+0x20>
    4d80:	487c                	lw	a5,84(s0)
    4d82:	97aa                	add	a5,a5,a0
    4d84:	c87c                	sw	a5,84(s0)
    4d86:	40b2                	lw	ra,12(sp)
    4d88:	4422                	lw	s0,8(sp)
    4d8a:	0141                	addi	sp,sp,16
    4d8c:	8082                	ret
    4d8e:	245e                	lhu	a5,12(s0)
    4d90:	777d                	lui	a4,0xfffff
    4d92:	177d                	addi	a4,a4,-1
    4d94:	8ff9                	and	a5,a5,a4
    4d96:	a45e                	sh	a5,12(s0)
    4d98:	b7fd                	j	4d86 <__sread+0x18>

00004d9a <__swrite>:
    4d9a:	25de                	lhu	a5,12(a1)
    4d9c:	1101                	addi	sp,sp,-32
    4d9e:	cc22                	sw	s0,24(sp)
    4da0:	ca26                	sw	s1,20(sp)
    4da2:	c84a                	sw	s2,16(sp)
    4da4:	c64e                	sw	s3,12(sp)
    4da6:	ce06                	sw	ra,28(sp)
    4da8:	1007f793          	andi	a5,a5,256
    4dac:	84aa                	mv	s1,a0
    4dae:	842e                	mv	s0,a1
    4db0:	8932                	mv	s2,a2
    4db2:	89b6                	mv	s3,a3
    4db4:	c791                	beqz	a5,4dc0 <__swrite+0x26>
    4db6:	00e59583          	lh	a1,14(a1)
    4dba:	4689                	li	a3,2
    4dbc:	4601                	li	a2,0
    4dbe:	2209                	jal	4ec0 <_lseek_r>
    4dc0:	245e                	lhu	a5,12(s0)
    4dc2:	777d                	lui	a4,0xfffff
    4dc4:	177d                	addi	a4,a4,-1
    4dc6:	8ff9                	and	a5,a5,a4
    4dc8:	a45e                	sh	a5,12(s0)
    4dca:	00e41583          	lh	a1,14(s0)
    4dce:	4462                	lw	s0,24(sp)
    4dd0:	40f2                	lw	ra,28(sp)
    4dd2:	86ce                	mv	a3,s3
    4dd4:	864a                	mv	a2,s2
    4dd6:	49b2                	lw	s3,12(sp)
    4dd8:	4942                	lw	s2,16(sp)
    4dda:	8526                	mv	a0,s1
    4ddc:	44d2                	lw	s1,20(sp)
    4dde:	6105                	addi	sp,sp,32
    4de0:	a825                	j	4e18 <_write_r>

00004de2 <__sseek>:
    4de2:	1141                	addi	sp,sp,-16
    4de4:	c422                	sw	s0,8(sp)
    4de6:	842e                	mv	s0,a1
    4de8:	00e59583          	lh	a1,14(a1)
    4dec:	c606                	sw	ra,12(sp)
    4dee:	28c9                	jal	4ec0 <_lseek_r>
    4df0:	57fd                	li	a5,-1
    4df2:	245a                	lhu	a4,12(s0)
    4df4:	00f51a63          	bne	a0,a5,4e08 <__sseek+0x26>
    4df8:	77fd                	lui	a5,0xfffff
    4dfa:	17fd                	addi	a5,a5,-1
    4dfc:	8ff9                	and	a5,a5,a4
    4dfe:	a45e                	sh	a5,12(s0)
    4e00:	40b2                	lw	ra,12(sp)
    4e02:	4422                	lw	s0,8(sp)
    4e04:	0141                	addi	sp,sp,16
    4e06:	8082                	ret
    4e08:	6785                	lui	a5,0x1
    4e0a:	8fd9                	or	a5,a5,a4
    4e0c:	a45e                	sh	a5,12(s0)
    4e0e:	c868                	sw	a0,84(s0)
    4e10:	bfc5                	j	4e00 <__sseek+0x1e>

00004e12 <__sclose>:
    4e12:	00e59583          	lh	a1,14(a1)
    4e16:	a805                	j	4e46 <_close_r>

00004e18 <_write_r>:
    4e18:	1141                	addi	sp,sp,-16
    4e1a:	c422                	sw	s0,8(sp)
    4e1c:	842a                	mv	s0,a0
    4e1e:	852e                	mv	a0,a1
    4e20:	85b2                	mv	a1,a2
    4e22:	8636                	mv	a2,a3
    4e24:	ca01ae23          	sw	zero,-836(gp) # 20000564 <errno>
    4e28:	c606                	sw	ra,12(sp)
    4e2a:	e0dfe0ef          	jal	ra,3c36 <_write>
    4e2e:	57fd                	li	a5,-1
    4e30:	00f51763          	bne	a0,a5,4e3e <_write_r+0x26>
    4e34:	cbc18793          	addi	a5,gp,-836 # 20000564 <errno>
    4e38:	439c                	lw	a5,0(a5)
    4e3a:	c391                	beqz	a5,4e3e <_write_r+0x26>
    4e3c:	c01c                	sw	a5,0(s0)
    4e3e:	40b2                	lw	ra,12(sp)
    4e40:	4422                	lw	s0,8(sp)
    4e42:	0141                	addi	sp,sp,16
    4e44:	8082                	ret

00004e46 <_close_r>:
    4e46:	1141                	addi	sp,sp,-16
    4e48:	c422                	sw	s0,8(sp)
    4e4a:	842a                	mv	s0,a0
    4e4c:	852e                	mv	a0,a1
    4e4e:	ca01ae23          	sw	zero,-836(gp) # 20000564 <errno>
    4e52:	c606                	sw	ra,12(sp)
    4e54:	20c5                	jal	4f34 <_close>
    4e56:	57fd                	li	a5,-1
    4e58:	00f51763          	bne	a0,a5,4e66 <_close_r+0x20>
    4e5c:	cbc18793          	addi	a5,gp,-836 # 20000564 <errno>
    4e60:	439c                	lw	a5,0(a5)
    4e62:	c391                	beqz	a5,4e66 <_close_r+0x20>
    4e64:	c01c                	sw	a5,0(s0)
    4e66:	40b2                	lw	ra,12(sp)
    4e68:	4422                	lw	s0,8(sp)
    4e6a:	0141                	addi	sp,sp,16
    4e6c:	8082                	ret

00004e6e <_fstat_r>:
    4e6e:	1141                	addi	sp,sp,-16
    4e70:	c422                	sw	s0,8(sp)
    4e72:	842a                	mv	s0,a0
    4e74:	852e                	mv	a0,a1
    4e76:	85b2                	mv	a1,a2
    4e78:	ca01ae23          	sw	zero,-836(gp) # 20000564 <errno>
    4e7c:	c606                	sw	ra,12(sp)
    4e7e:	20c9                	jal	4f40 <_fstat>
    4e80:	57fd                	li	a5,-1
    4e82:	00f51763          	bne	a0,a5,4e90 <_fstat_r+0x22>
    4e86:	cbc18793          	addi	a5,gp,-836 # 20000564 <errno>
    4e8a:	439c                	lw	a5,0(a5)
    4e8c:	c391                	beqz	a5,4e90 <_fstat_r+0x22>
    4e8e:	c01c                	sw	a5,0(s0)
    4e90:	40b2                	lw	ra,12(sp)
    4e92:	4422                	lw	s0,8(sp)
    4e94:	0141                	addi	sp,sp,16
    4e96:	8082                	ret

00004e98 <_isatty_r>:
    4e98:	1141                	addi	sp,sp,-16
    4e9a:	c422                	sw	s0,8(sp)
    4e9c:	842a                	mv	s0,a0
    4e9e:	852e                	mv	a0,a1
    4ea0:	ca01ae23          	sw	zero,-836(gp) # 20000564 <errno>
    4ea4:	c606                	sw	ra,12(sp)
    4ea6:	205d                	jal	4f4c <_isatty>
    4ea8:	57fd                	li	a5,-1
    4eaa:	00f51763          	bne	a0,a5,4eb8 <_isatty_r+0x20>
    4eae:	cbc18793          	addi	a5,gp,-836 # 20000564 <errno>
    4eb2:	439c                	lw	a5,0(a5)
    4eb4:	c391                	beqz	a5,4eb8 <_isatty_r+0x20>
    4eb6:	c01c                	sw	a5,0(s0)
    4eb8:	40b2                	lw	ra,12(sp)
    4eba:	4422                	lw	s0,8(sp)
    4ebc:	0141                	addi	sp,sp,16
    4ebe:	8082                	ret

00004ec0 <_lseek_r>:
    4ec0:	1141                	addi	sp,sp,-16
    4ec2:	c422                	sw	s0,8(sp)
    4ec4:	842a                	mv	s0,a0
    4ec6:	852e                	mv	a0,a1
    4ec8:	85b2                	mv	a1,a2
    4eca:	8636                	mv	a2,a3
    4ecc:	ca01ae23          	sw	zero,-836(gp) # 20000564 <errno>
    4ed0:	c606                	sw	ra,12(sp)
    4ed2:	2059                	jal	4f58 <_lseek>
    4ed4:	57fd                	li	a5,-1
    4ed6:	00f51763          	bne	a0,a5,4ee4 <_lseek_r+0x24>
    4eda:	cbc18793          	addi	a5,gp,-836 # 20000564 <errno>
    4ede:	439c                	lw	a5,0(a5)
    4ee0:	c391                	beqz	a5,4ee4 <_lseek_r+0x24>
    4ee2:	c01c                	sw	a5,0(s0)
    4ee4:	40b2                	lw	ra,12(sp)
    4ee6:	4422                	lw	s0,8(sp)
    4ee8:	0141                	addi	sp,sp,16
    4eea:	8082                	ret

00004eec <memchr>:
    4eec:	0ff5f593          	andi	a1,a1,255
    4ef0:	962a                	add	a2,a2,a0
    4ef2:	00c51463          	bne	a0,a2,4efa <memchr+0xe>
    4ef6:	4501                	li	a0,0
    4ef8:	8082                	ret
    4efa:	211c                	lbu	a5,0(a0)
    4efc:	feb78ee3          	beq	a5,a1,4ef8 <memchr+0xc>
    4f00:	0505                	addi	a0,a0,1
    4f02:	bfc5                	j	4ef2 <memchr+0x6>

00004f04 <__malloc_lock>:
    4f04:	8082                	ret

00004f06 <__malloc_unlock>:
    4f06:	8082                	ret

00004f08 <_read_r>:
    4f08:	1141                	addi	sp,sp,-16
    4f0a:	c422                	sw	s0,8(sp)
    4f0c:	842a                	mv	s0,a0
    4f0e:	852e                	mv	a0,a1
    4f10:	85b2                	mv	a1,a2
    4f12:	8636                	mv	a2,a3
    4f14:	ca01ae23          	sw	zero,-836(gp) # 20000564 <errno>
    4f18:	c606                	sw	ra,12(sp)
    4f1a:	20a9                	jal	4f64 <_read>
    4f1c:	57fd                	li	a5,-1
    4f1e:	00f51763          	bne	a0,a5,4f2c <_read_r+0x24>
    4f22:	cbc18793          	addi	a5,gp,-836 # 20000564 <errno>
    4f26:	439c                	lw	a5,0(a5)
    4f28:	c391                	beqz	a5,4f2c <_read_r+0x24>
    4f2a:	c01c                	sw	a5,0(s0)
    4f2c:	40b2                	lw	ra,12(sp)
    4f2e:	4422                	lw	s0,8(sp)
    4f30:	0141                	addi	sp,sp,16
    4f32:	8082                	ret

00004f34 <_close>:
    4f34:	05800793          	li	a5,88
    4f38:	caf1ae23          	sw	a5,-836(gp) # 20000564 <errno>
    4f3c:	557d                	li	a0,-1
    4f3e:	8082                	ret

00004f40 <_fstat>:
    4f40:	05800793          	li	a5,88
    4f44:	caf1ae23          	sw	a5,-836(gp) # 20000564 <errno>
    4f48:	557d                	li	a0,-1
    4f4a:	8082                	ret

00004f4c <_isatty>:
    4f4c:	05800793          	li	a5,88
    4f50:	caf1ae23          	sw	a5,-836(gp) # 20000564 <errno>
    4f54:	4501                	li	a0,0
    4f56:	8082                	ret

00004f58 <_lseek>:
    4f58:	05800793          	li	a5,88
    4f5c:	caf1ae23          	sw	a5,-836(gp) # 20000564 <errno>
    4f60:	557d                	li	a0,-1
    4f62:	8082                	ret

00004f64 <_read>:
    4f64:	05800793          	li	a5,88
    4f68:	caf1ae23          	sw	a5,-836(gp) # 20000564 <errno>
    4f6c:	557d                	li	a0,-1
    4f6e:	8082                	ret
    4f70:	74737953          	0x74737953
    4f74:	6d65                	lui	s10,0x19
    4f76:	3a6b6c43          	fmadd.d	fs8,fs6,ft6,ft7,unknown
    4f7a:	6425                	lui	s0,0x9
    4f7c:	0a0d                	addi	s4,s4,3
    4f7e:	0000                	unimp
    4f80:	70696843          	fmadd.s	fa6,fs2,ft6,fa4,unknown
    4f84:	4449                	li	s0,18
    4f86:	253a                	lhu	a4,10(a0)
    4f88:	3830                	lbu	a2,19(s0)
    4f8a:	0d78                	addi	a4,sp,668
    4f8c:	000a                	c.slli	zero,0x2
    4f8e:	0000                	unimp
    4f90:	5355                	li	t1,-11
    4f92:	4842                	lw	a6,16(sp)
    4f94:	6f432053          	0x6f432053
    4f98:	706d                	c.lui	zero,0xffffb
    4f9a:	7469736f          	jal	t1,9c6e0 <_data_lma+0x97468>
    4f9e:	2065                	jal	5046 <_read+0xe2>
    4fa0:	44204d4b          	0x44204d4b
    4fa4:	7665                	lui	a2,0xffff9
    4fa6:	6369                	lui	t1,0x1a
    4fa8:	2065                	jal	5050 <_read+0xec>
    4faa:	6554                	flw	fa3,12(a0)
    4fac:	000d7473          	csrrci	s0,ustatus,26
    4fb0:	5320424b          	fnmsub.d	ft4,ft0,fs2,fa0,rmm
    4fb4:	206e6163          	bltu	t3,t1,51b6 <MyProdInfo+0x6>
    4fb8:	6e49                	lui	t3,0x12
    4fba:	7469                	lui	s0,0xffffa
    4fbc:	4f20                	lw	s0,88(a4)
    4fbe:	000d214b          	fnmsub.s	ft2,fs10,ft0,ft0,rdn
    4fc2:	0000                	unimp
    4fc4:	4954                	lw	a3,20(a0)
    4fc6:	334d                	jal	4d68 <_sbrk_r+0x24>
    4fc8:	4920                	lw	s0,80(a0)
    4fca:	696e                	flw	fs2,216(sp)
    4fcc:	2074                	lbu	a3,6(s0)
    4fce:	0d214b4f          	0xd214b4f
    4fd2:	0000                	unimp
    4fd4:	65656c53          	0x65656c53
    4fd8:	0d70                	addi	a2,sp,668
    4fda:	0000                	unimp
    4fdc:	656b6157          	0x656b6157
    4fe0:	000d                	c.nop	3
    4fe2:	0000                	unimp
    4fe4:	0e96                	slli	t4,t4,0x5
    4fe6:	0000                	unimp
    4fe8:	0e96                	slli	t4,t4,0x5
    4fea:	0000                	unimp
    4fec:	0dfe                	slli	s11,s11,0x1f
    4fee:	0000                	unimp
    4ff0:	0e4a                	slli	t3,t3,0x12
    4ff2:	0000                	unimp
    4ff4:	0e96                	slli	t4,t4,0x5
    4ff6:	0000                	unimp
    4ff8:	0e96                	slli	t4,t4,0x5
    4ffa:	0000                	unimp
    4ffc:	0e96                	slli	t4,t4,0x5
    4ffe:	0000                	unimp
    5000:	0e96                	slli	t4,t4,0x5
    5002:	0000                	unimp
    5004:	0e96                	slli	t4,t4,0x5
    5006:	0000                	unimp
    5008:	1410                	addi	a2,sp,544
    500a:	0000                	unimp
    500c:	0d5c                	addi	a5,sp,660
    500e:	0000                	unimp
    5010:	0db6                	slli	s11,s11,0xd
    5012:	0000                	unimp
    5014:	132e                	slli	t1,t1,0x2b
    5016:	0000                	unimp
    5018:	1114                	addi	a3,sp,160
    501a:	0000                	unimp
    501c:	1404                	addi	s1,sp,544
    501e:	0000                	unimp
    5020:	11aa                	slli	gp,gp,0x2a
    5022:	0000                	unimp
    5024:	1404                	addi	s1,sp,544
    5026:	0000                	unimp
    5028:	10c6                	slli	ra,ra,0x31
    502a:	0000                	unimp
    502c:	0ebe                	slli	t4,t4,0xf
    502e:	0000                	unimp
    5030:	1404                	addi	s1,sp,544
    5032:	0000                	unimp
    5034:	10d8                	addi	a4,sp,100
    5036:	0000                	unimp
    5038:	10fc                	addi	a5,sp,108
    503a:	0000                	unimp
    503c:	1312                	slli	t1,t1,0x24
    503e:	0000                	unimp
    5040:	1414                	addi	a3,sp,544
    5042:	0000                	unimp
    5044:	105e                	c.slli	zero,0x37
    5046:	0000                	unimp
    5048:	0ee8                	addi	a0,sp,860
    504a:	0000                	unimp
    504c:	0efe                	slli	t4,t4,0x1f
    504e:	0000                	unimp
    5050:	0fc0                	addi	s0,sp,980
    5052:	0000                	unimp
    5054:	105e                	c.slli	zero,0x37
    5056:	0000                	unimp
    5058:	105e                	c.slli	zero,0x37
    505a:	0000                	unimp
    505c:	1048                	addi	a0,sp,36
    505e:	0000                	unimp
    5060:	105e                	c.slli	zero,0x37
    5062:	0000                	unimp
    5064:	105e                	c.slli	zero,0x37
    5066:	0000                	unimp
    5068:	105e                	c.slli	zero,0x37
    506a:	0000                	unimp
    506c:	105e                	c.slli	zero,0x37
    506e:	0000                	unimp
    5070:	105e                	c.slli	zero,0x37
    5072:	0000                	unimp
    5074:	105e                	c.slli	zero,0x37
    5076:	0000                	unimp
    5078:	105e                	c.slli	zero,0x37
    507a:	0000                	unimp
    507c:	105e                	c.slli	zero,0x37
    507e:	0000                	unimp
    5080:	105e                	c.slli	zero,0x37
    5082:	0000                	unimp
    5084:	105e                	c.slli	zero,0x37
    5086:	0000                	unimp
    5088:	105e                	c.slli	zero,0x37
    508a:	0000                	unimp
    508c:	105e                	c.slli	zero,0x37
    508e:	0000                	unimp
    5090:	105e                	c.slli	zero,0x37
    5092:	0000                	unimp
    5094:	105e                	c.slli	zero,0x37
    5096:	0000                	unimp
    5098:	105e                	c.slli	zero,0x37
    509a:	0000                	unimp
    509c:	105e                	c.slli	zero,0x37
    509e:	0000                	unimp
    50a0:	105e                	c.slli	zero,0x37
    50a2:	0000                	unimp
    50a4:	105e                	c.slli	zero,0x37
    50a6:	0000                	unimp
    50a8:	105e                	c.slli	zero,0x37
    50aa:	0000                	unimp
    50ac:	105e                	c.slli	zero,0x37
    50ae:	0000                	unimp
    50b0:	105e                	c.slli	zero,0x37
    50b2:	0000                	unimp
    50b4:	105e                	c.slli	zero,0x37
    50b6:	0000                	unimp
    50b8:	105e                	c.slli	zero,0x37
    50ba:	0000                	unimp
    50bc:	105e                	c.slli	zero,0x37
    50be:	0000                	unimp
    50c0:	105e                	c.slli	zero,0x37
    50c2:	0000                	unimp
    50c4:	105e                	c.slli	zero,0x37
    50c6:	0000                	unimp
    50c8:	0f30                	addi	a2,sp,920
    50ca:	0000                	unimp
    50cc:	0f76                	slli	t5,t5,0x1d
	...

000050d0 <MyDevDescr>:
    50d0:	0112 0200 0000 4000 1a86 fe00 0100 0201     .......@........
    50e0:	0103 0000                                   ....

000050e4 <MyCfgDescr>:
    50e4:	0209 003b 0102 a000 0932 0004 0100 0103     ..;.....2.......
    50f4:	0001 2109 0111 0100 3e22 0700 8105 0803     ...!....">......
    5104:	0a00 0409 0001 0301 0201 0900 1021 0001     ............!...
    5114:	2201 0034 0507 0382 0008 0001               ."4.........

00005120 <KeyRepDesc>:
    5120:	0105 0609 01a1 0705 e019 e729 0015 0125     ..........)...%.
    5130:	0175 0895 0281 0195 0875 0181 0395 0175     u.......u.....u.
    5140:	0805 0119 0329 0291 0595 0175 0191 0695     ....).....u.....
    5150:	0875 ff26 0500 1907 2900 8191 c000 0000     u.&......)......

00005160 <MouseRepDesc>:
    5160:	0105 0209 01a1 0109 00a1 0905 0119 0329     ..............).
    5170:	0015 0125 0175 0395 0281 0575 0195 0181     ..%.u.....u.....
    5180:	0105 3009 3109 3809 8115 7f25 0875 0395     ...0.1.8..%.u...
    5190:	0681 c0c0                                   ....

00005194 <MyQuaDesc>:
    5194:	060a 0200 0000 4000 0000 0000               .......@....

000051a0 <MyManuInfo>:
    51a0:	030e 0077 0063 0068 002e 0063 006e 0000     ..w.c.h...c.n...

000051b0 <MyProdInfo>:
    51b0:	0312 0043 0048 0033 0032 0056 0033 0030     ..C.H.3.2.V.3.0.
    51c0:	0078 0000                                   x...

000051c4 <MySerNumInfo>:
    51c4:	0316 0030 0031 0032 0033 0034 0035 0036     ..0.1.2.3.4.5.6.
    51d4:	0037 0038 0039 0000                         7.8.9...

000051dc <__sf_fake_stderr>:
	...

000051fc <__sf_fake_stdin>:
	...

0000521c <__sf_fake_stdout>:
	...
    523c:	2d23 2b30 0020 0000 6c68 004c 6665 4567     #-0+ ...hlL.efgE
    524c:	4746 0000 3130 3332 3534 3736 3938 4241     FG..0123456789AB
    525c:	4443 4645 0000 0000 3130 3332 3534 3736     CDEF....01234567
    526c:	3938 6261 6463 6665 0000 0000               89abcdef....
